_ZGVN7android9SingletonINS_13SurfaceClientEE5sLockE
_ZGVN7android9SingletonINS_15ComposerServiceEE5sLockE
_ZGVN7android9SingletonINS_8ComposerEE5sLockE
_ZN7android10GraphicLog7logImplEiii
_ZN7android10GraphicLogC1Ev
_ZN7android10IInterface8asBinderEv
_ZN7android10IInterfaceC2Ev
_ZN7android10IInterfaceD0Ev
_ZN7android10IInterfaceD1Ev
_ZN7android10IInterfaceD2Ev
_ZN7android10OverlayRef13writeToParcelEPNS_6ParcelERKNS_2spIS0_EE
_ZN7android10OverlayRef14readFromParcelERKNS_6ParcelE
_ZN7android10VectorImpl11setCapacityEj
_ZN7android10VectorImpl13editArrayImplEv
_ZN7android10VectorImpl13finish_vectorEv
_ZN7android10VectorImpl13removeItemsAtEjj
_ZN7android10VectorImpl16editItemLocationEj
_ZN7android10VectorImpl19reservedVectorImpl1Ev
_ZN7android10VectorImpl19reservedVectorImpl2Ev
_ZN7android10VectorImpl19reservedVectorImpl3Ev
_ZN7android10VectorImpl19reservedVectorImpl4Ev
_ZN7android10VectorImpl19reservedVectorImpl5Ev
_ZN7android10VectorImpl19reservedVectorImpl6Ev
_ZN7android10VectorImpl19reservedVectorImpl7Ev
_ZN7android10VectorImpl19reservedVectorImpl8Ev
_ZN7android10VectorImpl5clearEv
_ZN7android10VectorImpl8insertAtEjj
_ZN7android10VectorImplC2ERKS0_
_ZN7android10VectorImplC2Ejj
_ZN7android10VectorImplD2Ev
_ZN7android10getServiceINS_16ISurfaceComposerEEEiRKNS_8String16EPNS_2spIT_EE
_ZN7android11BnInterfaceINS_16ISurfaceComposerEE10onAsBinderEv
_ZN7android11BnInterfaceINS_22ISurfaceComposerClientEE10onAsBinderEv
_ZN7android11BnInterfaceINS_8ISurfaceEE10onAsBinderEv
_ZN7android11IMemoryHeap11asInterfaceERKNS_2spINS_7IBinderEEE
_ZN7android12SharedClientC1Ev
_ZN7android12SharedClientC2Ev
_ZN7android12SharedClientD1Ev
_ZN7android12SharedClientD2Ev
_ZN7android13GraphicBuffer4lockEjRKNS_4RectEPPv
_ZN7android13GraphicBuffer6unlockEv
_ZN7android13GraphicBuffer8setIndexEi
_ZN7android13GraphicBufferC1Ev
_ZN7android13bytesPerPixelEi
_ZN7android13layer_state_t4readERKNS_6ParcelE
_ZN7android14IPCThreadState13flushCommandsEv
_ZN7android14IPCThreadState13getCallingPidEv
_ZN7android14IPCThreadState13getCallingUidEv
_ZN7android14IPCThreadState4selfEv
_ZN7android14SurfaceControl11setPositionEii
_ZN7android14SurfaceControl13isSameSurfaceERKNS_2spIS0_EES4_
_ZN7android14SurfaceControl13setFreezeTintEj
_ZN7android14SurfaceControl20writeSurfaceToParcelERKNS_2spIS0_EEPNS_6ParcelE
_ZN7android14SurfaceControl24setTransparentRegionHintERKNS_6RegionE
_ZN7android14SurfaceControl4hideEv
_ZN7android14SurfaceControl4showEi
_ZN7android14SurfaceControl5clearEv
_ZN7android14SurfaceControl6freezeEv
_ZN7android14SurfaceControl7destroyEv
_ZN7android14SurfaceControl7setSizeEjj
_ZN7android14SurfaceControl8setAlphaEf
_ZN7android14SurfaceControl8setFlagsEjj
_ZN7android14SurfaceControl8setLayerEi
_ZN7android14SurfaceControl8unfreezeEv
_ZN7android14SurfaceControl9setMatrixEffff
_ZN7android14SurfaceControlC1ERKNS_2spINS_21SurfaceComposerClientEEERKNS1_INS_8ISurfaceEEERKNS_22ISurfaceComposerClient14surface_data_tEjjij
_ZN7android14SurfaceControlC2ERKNS_2spINS_21SurfaceComposerClientEEERKNS1_INS_8ISurfaceEEERKNS_22ISurfaceComposerClient14surface_data_tEjjij
_ZN7android14SurfaceControlD0Ev
_ZN7android14SurfaceControlD1Ev
_ZN7android14SurfaceControlD2Ev
_ZN7android15ComposerService15getControlBlockEv
_ZN7android15ComposerService18getComposerServiceEv
_ZN7android15ComposerServiceC1Ev
_ZN7android15ComposerServiceC2Ev
_ZN7android16ISurfaceComposer10descriptorE
_ZN7android16ISurfaceComposer11asInterfaceERKNS_2spINS_7IBinderEEE
_ZN7android16ISurfaceComposerC1Ev
_ZN7android16ISurfaceComposerC2Ev
_ZN7android16ISurfaceComposerD0Ev
_ZN7android16ISurfaceComposerD1Ev
_ZN7android16ISurfaceComposerD2Ev
_ZN7android16ScreenshotClient6updateEjj
_ZN7android16ScreenshotClient6updateEv
_ZN7android16ScreenshotClient7releaseEv
_ZN7android16ScreenshotClientC1Ev
_ZN7android16ScreenshotClientC2Ev
_ZN7android16SharedBufferBase15updateConditionINS_18SharedBufferClient11QueueUpdateEEEiT_
_ZN7android16SharedBufferBase15updateConditionINS_18SharedBufferClient12CancelUpdateEEEiT_
_ZN7android16SharedBufferBase15updateConditionINS_18SharedBufferClient13DequeueUpdateEEEiT_
_ZN7android16SharedBufferBase15updateConditionINS_18SharedBufferServer12RetireUpdateEEEiT_
_ZN7android16SharedBufferBase15updateConditionINS_18SharedBufferServer12StatusUpdateEEEiT_
_ZN7android16SharedBufferBase16waitForConditionERKNS0_13ConditionBaseE
_ZN7android16SharedBufferBaseC1EPNS_12SharedClientEii
_ZN7android16SharedBufferBaseC2EPNS_12SharedClientEii
_ZN7android16SharedBufferBaseD1Ev
_ZN7android16SharedBufferBaseD2Ev
_ZN7android16SortedVectorImpl25reservedSortedVectorImpl1Ev
_ZN7android16SortedVectorImpl25reservedSortedVectorImpl2Ev
_ZN7android16SortedVectorImpl25reservedSortedVectorImpl3Ev
_ZN7android16SortedVectorImpl25reservedSortedVectorImpl4Ev
_ZN7android16SortedVectorImpl25reservedSortedVectorImpl5Ev
_ZN7android16SortedVectorImpl25reservedSortedVectorImpl6Ev
_ZN7android16SortedVectorImpl25reservedSortedVectorImpl7Ev
_ZN7android16SortedVectorImpl25reservedSortedVectorImpl8Ev
_ZN7android16SortedVectorImpl3addEPKv
_ZN7android16SortedVectorImpl6removeEPKv
_ZN7android16SortedVectorImplC2Ejj
_ZN7android16SortedVectorImplD2Ev
_ZN7android17BnSurfaceComposer10onTransactEjRKNS_6ParcelEPS1_j
_ZN7android17SharedBufferStack12setTransformEih
_ZN7android17SharedBufferStack14setDirtyRegionEiRKNS_6RegionE
_ZN7android17SharedBufferStack4initEi
_ZN7android17SharedBufferStack7setCropEiRKNS_4RectE
_ZN7android17SharedBufferStackC1Ev
_ZN7android17SharedBufferStackC2Ev
_ZN7android17move_forward_typeINS_13layer_state_tEEEvPT_PKS2_j
_ZN7android18SharedBufferClient11undoDequeueEi
_ZN7android18SharedBufferClient12setTransformEij
_ZN7android18SharedBufferClient14setBufferCountEiRKNS0_22SetBufferCountCallbackE
_ZN7android18SharedBufferClient14setDirtyRegionEiRKNS_6RegionE
_ZN7android18SharedBufferClient4lockEi
_ZN7android18SharedBufferClient5queueEi
_ZN7android18SharedBufferClient6cancelEi
_ZN7android18SharedBufferClient7dequeueEv
_ZN7android18SharedBufferClient7setCropEiRKNS_4RectE
_ZN7android18SharedBufferClientC1EPNS_12SharedClientEiii
_ZN7android18SharedBufferClientC2EPNS_12SharedClientEiii
_ZN7android18SharedBufferServer10BufferList3addEi
_ZN7android18SharedBufferServer10BufferList6removeEi
_ZN7android18SharedBufferServer13reallocateAllEv
_ZN7android18SharedBufferServer13retireAndLockEv
_ZN7android18SharedBufferServer19reallocateAllExceptEi
_ZN7android18SharedBufferServer6resizeEi
_ZN7android18SharedBufferServer9setStatusEi
_ZN7android18SharedBufferServerC1EPNS_12SharedClientEiii
_ZN7android18SharedBufferServerC2EPNS_12SharedClientEiii
_ZN7android18SharedBufferServerD1Ev
_ZN7android18SharedBufferServerD2Ev
_ZN7android18getPixelFormatInfoEiPNS_15PixelFormatInfoE
_ZN7android18move_backward_typeINS_13layer_state_tEEEvPT_PKS2_j
_ZN7android19GraphicBufferMapper14registerBufferEPK15native_handle_t
_ZN7android19GraphicBufferMapper16unregisterBufferEPK15native_handle_t
_ZN7android19GraphicBufferMapperC1Ev
_ZN7android21SurfaceComposerClient10onFirstRefEv
_ZN7android21SurfaceComposerClient11setPositionEiii
_ZN7android21SurfaceComposerClient13createSurfaceEiRKNS_7String8Eijjij
_ZN7android21SurfaceComposerClient13createSurfaceEiijjij
_ZN7android21SurfaceComposerClient13freezeDisplayEij
_ZN7android21SurfaceComposerClient13setFreezeTintEij
_ZN7android21SurfaceComposerClient14destroySurfaceEi
_ZN7android21SurfaceComposerClient14getDisplayInfoEiPNS_11DisplayInfoE
_ZN7android21SurfaceComposerClient14lockLayerStateEi
_ZN7android21SurfaceComposerClient14setOrientationEiij
_ZN7android21SurfaceComposerClient15getDisplayWidthEi
_ZN7android21SurfaceComposerClient15openTransactionEv
_ZN7android21SurfaceComposerClient15unfreezeDisplayEij
_ZN7android21SurfaceComposerClient16closeTransactionEv
_ZN7android21SurfaceComposerClient16getDisplayHeightEi
_ZN7android21SurfaceComposerClient19getNumberOfDisplaysEv
_ZN7android21SurfaceComposerClient19linkToComposerDeathERKNS_2spINS_7IBinder14DeathRecipientEEEPvj
_ZN7android21SurfaceComposerClient21getDisplayOrientationEi
_ZN7android21SurfaceComposerClient21openGlobalTransactionEv
_ZN7android21SurfaceComposerClient22closeGlobalTransactionEv
_ZN7android21SurfaceComposerClient24setTransparentRegionHintEiRKNS_6RegionE
_ZN7android21SurfaceComposerClient4hideEi
_ZN7android21SurfaceComposerClient4showEii
_ZN7android21SurfaceComposerClient6freezeEi
_ZN7android21SurfaceComposerClient7disposeEv
_ZN7android21SurfaceComposerClient7setSizeEijj
_ZN7android21SurfaceComposerClient8setAlphaEif
_ZN7android21SurfaceComposerClient8setFlagsEijj
_ZN7android21SurfaceComposerClient8setLayerEii
_ZN7android21SurfaceComposerClient8unfreezeEi
_ZN7android21SurfaceComposerClient9setMatrixEiffff
_ZN7android21SurfaceComposerClientC1Ev
_ZN7android21SurfaceComposerClientC2Ev
_ZN7android21SurfaceComposerClientD0Ev
_ZN7android21SurfaceComposerClientD1Ev
_ZN7android21SurfaceComposerClientD2Ev
_ZN7android21defaultServiceManagerEv
_ZN7android22ISurfaceComposerClient10descriptorE
_ZN7android22ISurfaceComposerClient11asInterfaceERKNS_2spINS_7IBinderEEE
_ZN7android22ISurfaceComposerClient14surface_data_t14readFromParcelERKNS_6ParcelE
_ZN7android22ISurfaceComposerClientC1Ev
_ZN7android22ISurfaceComposerClientC2Ev
_ZN7android22ISurfaceComposerClientD0Ev
_ZN7android22ISurfaceComposerClientD1Ev
_ZN7android22ISurfaceComposerClientD2Ev
_ZN7android22checkCallingPermissionERKNS_8String16E
_ZN7android23BnSurfaceComposerClient10onTransactEjRKNS_6ParcelEPS1_j
_ZN7android2spINS_11IMemoryHeapEEC1ERKS2_
_ZN7android2spINS_11IMemoryHeapEEaSERKS2_
_ZN7android2spINS_13GraphicBufferEED1Ev
_ZN7android2spINS_13GraphicBufferEEaSERKS2_
_ZN7android2spINS_14SurfaceControlEEaSEPS1_
_ZN7android2spINS_16ISurfaceComposerEED1Ev
_ZN7android2spINS_16ISurfaceComposerEEaSEPS1_
_ZN7android2spINS_16ISurfaceComposerEEaSERKS2_
_ZN7android2spINS_16ISurfaceComposerEEaSINS_17BpSurfaceComposerEEERS2_PT_
_ZN7android2spINS_22ISurfaceComposerClientEED1Ev
_ZN7android2spINS_22ISurfaceComposerClientEEaSEPS1_
_ZN7android2spINS_22ISurfaceComposerClientEEaSERKS2_
_ZN7android2spINS_22ISurfaceComposerClientEEaSINS_23BpSurfaceComposerClientEEERS2_PT_
_ZN7android2spINS_7IBinderEED1Ev
_ZN7android2spINS_7SurfaceEEaSEPS1_
_ZN7android2spINS_8ISurfaceEEC1ERKS2_
_ZN7android2spINS_8ISurfaceEED1Ev
_ZN7android2spINS_8ISurfaceEEaSEPS1_
_ZN7android2spINS_8ISurfaceEEaSERKS2_
_ZN7android2spINS_8ISurfaceEEaSINS_9BpSurfaceEEERS2_PT_
_ZN7android4Rect11makeInvalidEv
_ZN7android6Parcel10writeInt32Ei
_ZN7android6Parcel12writeInplaceEj
_ZN7android6Parcel12writeString8ERKNS_7String8E
_ZN7android6Parcel17writeStrongBinderERKNS_2spINS_7IBinderEEE
_ZN7android6Parcel19writeFileDescriptorEi
_ZN7android6Parcel19writeInterfaceTokenERKNS_8String16E
_ZN7android6Parcel5writeEPKvj
_ZN7android6Parcel5writeERKNS_11FlattenableE
_ZN7android6ParcelC1Ev
_ZN7android6ParcelD1Ev
_ZN7android6Region3setERKNS_4RectE
_ZN7android6Region3setEjj
_ZN7android6Region4readEPKv
_ZN7android6Region6orSelfERKNS_4RectE
_ZN7android6Region7andSelfERKS0_
_ZN7android6RegionC1ERKNS_4RectE
_ZN7android6RegionC1ERKS0_
_ZN7android6RegionC1Ev
_ZN7android6RegionD1Ev
_ZN7android6RegionaSERKS0_
_ZN7android7BBinder10onTransactEjRKNS_6ParcelEPS1_j
_ZN7android7BBinder10pingBinderEv
_ZN7android7BBinder11linkToDeathERKNS_2spINS_7IBinder14DeathRecipientEEEPvj
_ZN7android7BBinder11localBinderEv
_ZN7android7BBinder12attachObjectEPKvPvS3_PFvS2_S3_S3_E
_ZN7android7BBinder12detachObjectEPKv
_ZN7android7BBinder13unlinkToDeathERKNS_2wpINS_7IBinder14DeathRecipientEEEPvjPS4_
_ZN7android7BBinder4dumpEiRKNS_6VectorINS_8String16EEE
_ZN7android7BBinder8transactEjRKNS_6ParcelEPS1_j
_ZN7android7BBinderD0Ev
_ZN7android7BBinderD1Ev
_ZN7android7BBinderD2Ev
_ZN7android7IBinder11localBinderEv
_ZN7android7IBinder12remoteBinderEv
_ZN7android7IBinder19queryLocalInterfaceERKNS_8String16E
_ZN7android7IBinderD0Ev
_ZN7android7IBinderD1Ev
_ZN7android7RefBase10onFirstRefEv
_ZN7android7RefBase12weakref_type16attemptIncStrongEPKv
_ZN7android7RefBase12weakref_type7decWeakEPKv
_ZN7android7RefBase12weakref_type7incWeakEPKv
_ZN7android7RefBase13onLastWeakRefEPKv
_ZN7android7RefBase15onLastStrongRefEPKv
_ZN7android7RefBase20onIncStrongAttemptedEjPKv
_ZN7android7RefBaseC2Ev
_ZN7android7RefBaseD2Ev
_ZN7android7String86appendEPKc
_ZN7android7String8C1Ev
_ZN7android7String8D1Ev
_ZN7android7Surface10BufferInfo3setEj
_ZN7android7Surface10BufferInfo3setEjjj
_ZN7android7Surface10BufferInfoC1Ev
_ZN7android7Surface10BufferInfoC2Ev
_ZN7android7Surface10disconnectEi
_ZN7android7Surface10lockBufferEP13ANativeWindowP23android_native_buffer_t
_ZN7android7Surface10lockBufferEP23android_native_buffer_t
_ZN7android7Surface11queueBufferEP13ANativeWindowP23android_native_buffer_t
_ZN7android7Surface11queueBufferEP23android_native_buffer_t
_ZN7android7Surface12cancelBufferEP13ANativeWindowP23android_native_buffer_t
_ZN7android7Surface12cancelBufferEP23android_native_buffer_t
_ZN7android7Surface13dequeueBufferEP13ANativeWindowPP23android_native_buffer_t
_ZN7android7Surface13dequeueBufferEPP23android_native_buffer_t
_ZN7android7Surface13dispatch_cropESt9__va_list
_ZN7android7Surface13unlockAndPostEv
_ZN7android7Surface13writeToParcelERKNS_2spIS0_EEPNS_6ParcelE
_ZN7android7Surface14readFromParcelERKNS_6ParcelE
_ZN7android7Surface14setBufferCountEi
_ZN7android7Surface15getBufferLockedEijjjj
_ZN7android7Surface15sCachedSurfacesE
_ZN7android7Surface15setSwapIntervalEP13ANativeWindowi
_ZN7android7Surface16dispatch_connectESt9__va_list
_ZN7android7Surface16setSwapRectangleERKNS_4RectE
_ZN7android7Surface17dispatch_setUsageESt9__va_list
_ZN7android7Surface18setBuffersGeometryEiii
_ZN7android7Surface19dispatch_disconnectESt9__va_list
_ZN7android7Surface19sCachedSurfacesLockE
_ZN7android7Surface19setBuffersTransformEi
_ZN7android7Surface25cleanCachedSurfacesLockedEv
_ZN7android7Surface25dispatch_set_buffer_countESt9__va_list
_ZN7android7Surface29dispatch_set_buffers_geometryESt9__va_list
_ZN7android7Surface30dispatch_set_buffers_transformESt9__va_list
_ZN7android7Surface4cropEPKNS_4RectE
_ZN7android7Surface4initEv
_ZN7android7Surface4lockEPNS0_11SurfaceInfoEPNS_6RegionEb
_ZN7android7Surface4lockEPNS0_11SurfaceInfoEb
_ZN7android7Surface5queryEP13ANativeWindowiPi
_ZN7android7Surface5queryEiPi
_ZN7android7Surface7connectEi
_ZN7android7Surface7isValidEv
_ZN7android7Surface7performEP13ANativeWindowiz
_ZN7android7Surface7performEiSt9__va_list
_ZN7android7Surface8setUsageEj
_ZN7android7SurfaceC1ERKNS_2spINS_14SurfaceControlEEE
_ZN7android7SurfaceC1ERKNS_6ParcelERKNS_2spINS_7IBinderEEE
_ZN7android7SurfaceC2ERKNS_2spINS_14SurfaceControlEEE
_ZN7android7SurfaceC2ERKNS_6ParcelERKNS_2spINS_7IBinderEEE
_ZN7android7SurfaceD0Ev
_ZN7android7SurfaceD1Ev
_ZN7android7SurfaceD2Ev
_ZN7android8ISurface10BufferHeapC1EjjiiiRKNS_2spINS_11IMemoryHeapEEE
_ZN7android8ISurface10BufferHeapC1EjjiiijjRKNS_2spINS_11IMemoryHeapEEE
_ZN7android8ISurface10BufferHeapC1Ev
_ZN7android8ISurface10BufferHeapC2EjjiiiRKNS_2spINS_11IMemoryHeapEEE
_ZN7android8ISurface10BufferHeapC2EjjiiijjRKNS_2spINS_11IMemoryHeapEEE
_ZN7android8ISurface10BufferHeapC2Ev
_ZN7android8ISurface10BufferHeapD1Ev
_ZN7android8ISurface10BufferHeapD2Ev
_ZN7android8ISurface10descriptorE
_ZN7android8ISurface11asInterfaceERKNS_2spINS_7IBinderEEE
_ZN7android8ISurfaceC1Ev
_ZN7android8ISurfaceC2Ev
_ZN7android8ISurfaceD0Ev
_ZN7android8ISurfaceD1Ev
_ZN7android8ISurfaceD2Ev
_ZN7android8String16C1EPKc
_ZN7android8String16D1Ev
_ZN7android9BnSurface10onTransactEjRKNS_6ParcelEPS1_j
_ZN7android9BpRefBase10onFirstRefEv
_ZN7android9BpRefBase15onLastStrongRefEPKv
_ZN7android9BpRefBase20onIncStrongAttemptedEjPKv
_ZN7android9BpRefBaseC2ERKNS_2spINS_7IBinderEEE
_ZN7android9BpRefBaseD0Ev
_ZN7android9BpRefBaseD1Ev
_ZN7android9BpRefBaseD2Ev
_ZN7android9CallStack6updateEii
_ZN7android9CallStackC1Ev
_ZN7android9CallStackD1Ev
_ZN7android9SingletonINS_10GraphicLogEE5sLockE
_ZN7android9SingletonINS_10GraphicLogEE9sInstanceE
_ZN7android9SingletonINS_13SurfaceClientEE11getInstanceEv
_ZN7android9SingletonINS_13SurfaceClientEE5sLockE
_ZN7android9SingletonINS_13SurfaceClientEE9sInstanceE
_ZN7android9SingletonINS_13SurfaceClientEEC1Ev
_ZN7android9SingletonINS_13SurfaceClientEEC2Ev
_ZN7android9SingletonINS_13SurfaceClientEED1Ev
_ZN7android9SingletonINS_13SurfaceClientEED2Ev
_ZN7android9SingletonINS_15ComposerServiceEE11getInstanceEv
_ZN7android9SingletonINS_15ComposerServiceEE5sLockE
_ZN7android9SingletonINS_15ComposerServiceEE9sInstanceE
_ZN7android9SingletonINS_15ComposerServiceEEC1Ev
_ZN7android9SingletonINS_15ComposerServiceEEC2Ev
_ZN7android9SingletonINS_15ComposerServiceEED1Ev
_ZN7android9SingletonINS_15ComposerServiceEED2Ev
_ZN7android9SingletonINS_19GraphicBufferMapperEE5sLockE
_ZN7android9SingletonINS_19GraphicBufferMapperEE9sInstanceE
_ZN7android9SingletonINS_8ComposerEE11getInstanceEv
_ZN7android9SingletonINS_8ComposerEE5sLockE
_ZN7android9SingletonINS_8ComposerEE9sInstanceE
_ZN7android9SingletonINS_8ComposerEEC1Ev
_ZN7android9SingletonINS_8ComposerEEC2Ev
_ZN7android9SingletonINS_8ComposerEED1Ev
_ZN7android9SingletonINS_8ComposerEED2Ev
_ZNK7android12SharedClient8validateEj
_ZNK7android12SortedVectorINS_13layer_state_tEE10do_compareEPKvS4_
_ZNK7android12SortedVectorINS_13layer_state_tEE10do_destroyEPvj
_ZNK7android12SortedVectorINS_13layer_state_tEE12do_constructEPvj
_ZNK7android12SortedVectorINS_13layer_state_tEE15do_move_forwardEPvPKvj
_ZNK7android12SortedVectorINS_13layer_state_tEE16do_move_backwardEPvPKvj
_ZNK7android12SortedVectorINS_13layer_state_tEE7do_copyEPvPKvj
_ZNK7android12SortedVectorINS_13layer_state_tEE8do_splatEPvPKvj
_ZNK7android12SortedVectorINS_16key_value_pair_tINS_2wpINS_7IBinderEEENS2_INS_7SurfaceEEEEEE10do_compareEPKvSA_
_ZNK7android12SortedVectorINS_16key_value_pair_tINS_2wpINS_7IBinderEEENS2_INS_7SurfaceEEEEEE10do_destroyEPvj
_ZNK7android12SortedVectorINS_16key_value_pair_tINS_2wpINS_7IBinderEEENS2_INS_7SurfaceEEEEEE12do_constructEPvj
_ZNK7android12SortedVectorINS_16key_value_pair_tINS_2wpINS_7IBinderEEENS2_INS_7SurfaceEEEEEE15do_move_forwardEPvPKvj
_ZNK7android12SortedVectorINS_16key_value_pair_tINS_2wpINS_7IBinderEEENS2_INS_7SurfaceEEEEEE16do_move_backwardEPvPKvj
_ZNK7android12SortedVectorINS_16key_value_pair_tINS_2wpINS_7IBinderEEENS2_INS_7SurfaceEEEEEE7do_copyEPvPKvj
_ZNK7android12SortedVectorINS_16key_value_pair_tINS_2wpINS_7IBinderEEENS2_INS_7SurfaceEEEEEE8do_splatEPvPKvj
_ZNK7android12SortedVectorINS_2spINS_21SurfaceComposerClientEEEE10do_compareEPKvS6_
_ZNK7android12SortedVectorINS_2spINS_21SurfaceComposerClientEEEE10do_destroyEPvj
_ZNK7android12SortedVectorINS_2spINS_21SurfaceComposerClientEEEE12do_constructEPvj
_ZNK7android12SortedVectorINS_2spINS_21SurfaceComposerClientEEEE15do_move_forwardEPvPKvj
_ZNK7android12SortedVectorINS_2spINS_21SurfaceComposerClientEEEE16do_move_backwardEPvPKvj
_ZNK7android12SortedVectorINS_2spINS_21SurfaceComposerClientEEEE7do_copyEPvPKvj
_ZNK7android12SortedVectorINS_2spINS_21SurfaceComposerClientEEEE8do_splatEPvPKvj
_ZNK7android12SortedVectorINS_2wpINS_21SurfaceComposerClientEEEE10do_compareEPKvS6_
_ZNK7android12SortedVectorINS_2wpINS_21SurfaceComposerClientEEEE10do_destroyEPvj
_ZNK7android12SortedVectorINS_2wpINS_21SurfaceComposerClientEEEE12do_constructEPvj
_ZNK7android12SortedVectorINS_2wpINS_21SurfaceComposerClientEEEE15do_move_forwardEPvPKvj
_ZNK7android12SortedVectorINS_2wpINS_21SurfaceComposerClientEEEE16do_move_backwardEPvPKvj
_ZNK7android12SortedVectorINS_2wpINS_21SurfaceComposerClientEEEE7do_copyEPvPKvj
_ZNK7android12SortedVectorINS_2wpINS_21SurfaceComposerClientEEEE8do_splatEPvPKvj
_ZNK7android13GraphicBuffer8getIndexEv
_ZNK7android13layer_state_t5writeERNS_6ParcelE
_ZNK7android14SurfaceControl10getSurfaceEv
_ZNK7android14SurfaceControl8validateEv
_ZNK7android16ISurfaceComposer22getInterfaceDescriptorEv
_ZNK7android16ScreenshotClient7getSizeEv
_ZNK7android16ScreenshotClient8getWidthEv
_ZNK7android16ScreenshotClient9getFormatEv
_ZNK7android16ScreenshotClient9getHeightEv
_ZNK7android16ScreenshotClient9getPixelsEv
_ZNK7android16ScreenshotClient9getStrideEv
_ZNK7android16SharedBufferBase11getIdentityEv
_ZNK7android16SharedBufferBase4dumpEPKc
_ZNK7android16SharedBufferBase9getStatusEv
_ZNK7android16SortedVectorImpl7indexOfEPKv
_ZNK7android17SharedBufferStack12getTransformEi
_ZNK7android17SharedBufferStack14getDirtyRegionEi
_ZNK7android17SharedBufferStack7getCropEi
_ZNK7android18SharedBufferClient11computeTailEv
_ZNK7android18SharedBufferClient13needNewBufferEi
_ZNK7android18SharedBufferServer12getTransformEi
_ZNK7android18SharedBufferServer14getDirtyRegionEi
_ZNK7android18SharedBufferServer14getQueuedCountEv
_ZNK7android18SharedBufferServer7getCropEi
_ZNK7android18SharedBufferServer8getStatsEv
_ZNK7android21SurfaceComposerClient10connectionEv
_ZNK7android21SurfaceComposerClient9initCheckEv
_ZNK7android22ISurfaceComposerClient14surface_data_t13writeToParcelEPNS_6ParcelE
_ZNK7android22ISurfaceComposerClient22getInterfaceDescriptorEv
_ZNK7android6Parcel11readInplaceEj
_ZNK7android6Parcel11readString8Ev
_ZNK7android6Parcel14checkInterfaceEPNS_7IBinderE
_ZNK7android6Parcel16readStrongBinderEv
_ZNK7android6Parcel18readFileDescriptorEv
_ZNK7android6Parcel4readEPvj
_ZNK7android6Parcel4readERNS_11FlattenableE
_ZNK7android6Parcel9readInt32Ev
_ZNK7android6Region3endEv
_ZNK7android6Region5beginEv
_ZNK7android6Region5writeEPvj
_ZNK7android6Region8getArrayEPj
_ZNK7android6Region8subtractERKS0_
_ZNK7android6VectorINS_2spINS_13GraphicBufferEEEE10do_destroyEPvj
_ZNK7android6VectorINS_2spINS_13GraphicBufferEEEE12do_constructEPvj
_ZNK7android6VectorINS_2spINS_13GraphicBufferEEEE15do_move_forwardEPvPKvj
_ZNK7android6VectorINS_2spINS_13GraphicBufferEEEE16do_move_backwardEPvPKvj
_ZNK7android6VectorINS_2spINS_13GraphicBufferEEEE7do_copyEPvPKvj
_ZNK7android6VectorINS_2spINS_13GraphicBufferEEEE8do_splatEPvPKvj
_ZNK7android7BBinder10findObjectEPKv
_ZNK7android7BBinder13isBinderAliveEv
_ZNK7android7BBinder22getInterfaceDescriptorEv
_ZNK7android7IBinder13checkSubclassEPKv
_ZNK7android7RefBase10createWeakEPKv
_ZNK7android7RefBase9decStrongEPKv
_ZNK7android7RefBase9incStrongEPKv
_ZNK7android7Surface10BufferInfo14validateBufferERKNS_2spINS_13GraphicBufferEEE
_ZNK7android7Surface10BufferInfo3getEPjS2_S2_S2_
_ZNK7android7Surface11getISurfaceEv
_ZNK7android7Surface13needNewBufferEiPjS1_S1_S1_
_ZNK7android7Surface14getBufferIndexERKNS_2spINS_13GraphicBufferEEE
_ZNK7android7Surface15getConnectedApiEv
_ZNK7android7Surface8validateEv
_ZNK7android8ISurface22getInterfaceDescriptorEv
_ZNK7android9CallStack4dumpEPKc
_ZTCN7android11BnInterfaceINS_16ISurfaceComposerEEE0_NS_10IInterfaceE
_ZTCN7android11BnInterfaceINS_16ISurfaceComposerEEE0_S1_
_ZTCN7android11BnInterfaceINS_16ISurfaceComposerEEE4_NS_7BBinderE
_ZTCN7android11BnInterfaceINS_16ISurfaceComposerEEE4_NS_7IBinderE
_ZTCN7android11BnInterfaceINS_22ISurfaceComposerClientEEE0_NS_10IInterfaceE
_ZTCN7android11BnInterfaceINS_22ISurfaceComposerClientEEE0_S1_
_ZTCN7android11BnInterfaceINS_22ISurfaceComposerClientEEE4_NS_7BBinderE
_ZTCN7android11BnInterfaceINS_22ISurfaceComposerClientEEE4_NS_7IBinderE
_ZTCN7android11BnInterfaceINS_8ISurfaceEEE0_NS_10IInterfaceE
_ZTCN7android11BnInterfaceINS_8ISurfaceEEE0_S1_
_ZTCN7android11BnInterfaceINS_8ISurfaceEEE4_NS_7BBinderE
_ZTCN7android11BnInterfaceINS_8ISurfaceEEE4_NS_7IBinderE
_ZTCN7android11BpInterfaceINS_16ISurfaceComposerEEE0_NS_10IInterfaceE
_ZTCN7android11BpInterfaceINS_16ISurfaceComposerEEE0_S1_
_ZTCN7android11BpInterfaceINS_16ISurfaceComposerEEE4_NS_9BpRefBaseE
_ZTCN7android11BpInterfaceINS_22ISurfaceComposerClientEEE0_NS_10IInterfaceE
_ZTCN7android11BpInterfaceINS_22ISurfaceComposerClientEEE0_S1_
_ZTCN7android11BpInterfaceINS_22ISurfaceComposerClientEEE4_NS_9BpRefBaseE
_ZTCN7android11BpInterfaceINS_8ISurfaceEEE0_NS_10IInterfaceE
_ZTCN7android11BpInterfaceINS_8ISurfaceEEE0_S1_
_ZTCN7android11BpInterfaceINS_8ISurfaceEEE4_NS_9BpRefBaseE
_ZTCN7android16ISurfaceComposerE0_NS_10IInterfaceE
_ZTCN7android17BnSurfaceComposerE0_NS_10IInterfaceE
_ZTCN7android17BnSurfaceComposerE0_NS_11BnInterfaceINS_16ISurfaceComposerEEE
_ZTCN7android17BnSurfaceComposerE0_NS_16ISurfaceComposerE
_ZTCN7android17BnSurfaceComposerE4_NS_7BBinderE
_ZTCN7android17BnSurfaceComposerE4_NS_7IBinderE
_ZTCN7android17BpSurfaceComposerE0_NS_10IInterfaceE
_ZTCN7android17BpSurfaceComposerE0_NS_11BpInterfaceINS_16ISurfaceComposerEEE
_ZTCN7android17BpSurfaceComposerE0_NS_16ISurfaceComposerE
_ZTCN7android17BpSurfaceComposerE4_NS_9BpRefBaseE
_ZTCN7android22ISurfaceComposerClientE0_NS_10IInterfaceE
_ZTCN7android23BnSurfaceComposerClientE0_NS_10IInterfaceE
_ZTCN7android23BnSurfaceComposerClientE0_NS_11BnInterfaceINS_22ISurfaceComposerClientEEE
_ZTCN7android23BnSurfaceComposerClientE0_NS_22ISurfaceComposerClientE
_ZTCN7android23BnSurfaceComposerClientE4_NS_7BBinderE
_ZTCN7android23BnSurfaceComposerClientE4_NS_7IBinderE
_ZTCN7android23BpSurfaceComposerClientE0_NS_10IInterfaceE
_ZTCN7android23BpSurfaceComposerClientE0_NS_11BpInterfaceINS_22ISurfaceComposerClientEEE
_ZTCN7android23BpSurfaceComposerClientE0_NS_22ISurfaceComposerClientE
_ZTCN7android23BpSurfaceComposerClientE4_NS_9BpRefBaseE
_ZTCN7android8ISurfaceE0_NS_10IInterfaceE
_ZTCN7android9BnSurfaceE0_NS_10IInterfaceE
_ZTCN7android9BnSurfaceE0_NS_11BnInterfaceINS_8ISurfaceEEE
_ZTCN7android9BnSurfaceE0_NS_8ISurfaceE
_ZTCN7android9BnSurfaceE4_NS_7BBinderE
_ZTCN7android9BnSurfaceE4_NS_7IBinderE
_ZTCN7android9BpSurfaceE0_NS_10IInterfaceE
_ZTCN7android9BpSurfaceE0_NS_11BpInterfaceINS_8ISurfaceEEE
_ZTCN7android9BpSurfaceE0_NS_8ISurfaceE
_ZTCN7android9BpSurfaceE4_NS_9BpRefBaseE
_ZTTN7android11BnInterfaceINS_16ISurfaceComposerEEE
_ZTTN7android11BnInterfaceINS_22ISurfaceComposerClientEEE
_ZTTN7android11BnInterfaceINS_8ISurfaceEEE
_ZTTN7android11BpInterfaceINS_16ISurfaceComposerEEE
_ZTTN7android11BpInterfaceINS_22ISurfaceComposerClientEEE
_ZTTN7android11BpInterfaceINS_8ISurfaceEEE
_ZTTN7android16ISurfaceComposerE
_ZTTN7android17BnSurfaceComposerE
_ZTTN7android17BpSurfaceComposerE
_ZTTN7android22ISurfaceComposerClientE
_ZTTN7android23BnSurfaceComposerClientE
_ZTTN7android23BpSurfaceComposerClientE
_ZTTN7android8ISurfaceE
_ZTTN7android9BnSurfaceE
_ZTTN7android9BpSurfaceE
_ZTVN7android11BnInterfaceINS_16ISurfaceComposerEEE
_ZTVN7android11BnInterfaceINS_22ISurfaceComposerClientEEE
_ZTVN7android11BnInterfaceINS_8ISurfaceEEE
_ZTVN7android11BpInterfaceINS_16ISurfaceComposerEEE
_ZTVN7android11BpInterfaceINS_22ISurfaceComposerClientEEE
_ZTVN7android11BpInterfaceINS_8ISurfaceEEE
_ZTVN7android12SortedVectorINS_13layer_state_tEEE
_ZTVN7android12SortedVectorINS_16key_value_pair_tINS_2wpINS_7IBinderEEENS2_INS_7SurfaceEEEEEEE
_ZTVN7android12SortedVectorINS_2spINS_21SurfaceComposerClientEEEEE
_ZTVN7android12SortedVectorINS_2wpINS_21SurfaceComposerClientEEEEE
_ZTVN7android13EGLNativeBaseI13ANativeWindowNS_7SurfaceENS_7RefBaseEEE
_ZTVN7android14SurfaceControlE
_ZTVN7android16ISurfaceComposerE
_ZTVN7android16SharedBufferBase13ConditionBaseE
_ZTVN7android17BnSurfaceComposerE
_ZTVN7android17BpSurfaceComposerE
_ZTVN7android18SharedBufferClient13LockConditionE
_ZTVN7android18SharedBufferClient16DequeueConditionE
_ZTVN7android18SharedBufferClient22SetBufferCountCallbackE
_ZTVN7android21SurfaceComposerClientE
_ZTVN7android22ISurfaceComposerClientE
_ZTVN7android23BnSurfaceComposerClientE
_ZTVN7android23BpSurfaceComposerClientE
_ZTVN7android6VectorINS_2spINS_13GraphicBufferEEEEE
_ZTVN7android7SurfaceE
_ZTVN7android8ISurfaceE
_ZTVN7android9BnSurfaceE
_ZTVN7android9BpSurfaceE
_ZTVZN7android7Surface14setBufferCountEiE17SetBufferCountIPC
_ZThn4_N7android17BnSurfaceComposer10onTransactEjRKNS_6ParcelEPS1_j
_ZThn4_N7android23BnSurfaceComposerClient10onTransactEjRKNS_6ParcelEPS1_j
_ZThn4_N7android9BnSurface10onTransactEjRKNS_6ParcelEPS1_j
_ZTv0_n12_N7android10IInterfaceD0Ev
_ZTv0_n12_N7android10IInterfaceD1Ev
_ZTv0_n12_N7android11BnInterfaceINS_16ISurfaceComposerEED0Ev
_ZTv0_n12_N7android11BnInterfaceINS_16ISurfaceComposerEED1Ev
_ZTv0_n12_N7android11BnInterfaceINS_22ISurfaceComposerClientEED0Ev
_ZTv0_n12_N7android11BnInterfaceINS_22ISurfaceComposerClientEED1Ev
_ZTv0_n12_N7android11BnInterfaceINS_8ISurfaceEED0Ev
_ZTv0_n12_N7android11BnInterfaceINS_8ISurfaceEED1Ev
_ZTv0_n12_N7android11BpInterfaceINS_16ISurfaceComposerEED0Ev
_ZTv0_n12_N7android11BpInterfaceINS_16ISurfaceComposerEED1Ev
_ZTv0_n12_N7android11BpInterfaceINS_22ISurfaceComposerClientEED0Ev
_ZTv0_n12_N7android11BpInterfaceINS_22ISurfaceComposerClientEED1Ev
_ZTv0_n12_N7android11BpInterfaceINS_8ISurfaceEED0Ev
_ZTv0_n12_N7android11BpInterfaceINS_8ISurfaceEED1Ev
_ZTv0_n12_N7android16ISurfaceComposerD0Ev
_ZTv0_n12_N7android16ISurfaceComposerD1Ev
_ZTv0_n12_N7android17BnSurfaceComposerD0Ev
_ZTv0_n12_N7android17BnSurfaceComposerD1Ev
_ZTv0_n12_N7android17BpSurfaceComposerD0Ev
_ZTv0_n12_N7android17BpSurfaceComposerD1Ev
_ZTv0_n12_N7android22ISurfaceComposerClientD0Ev
_ZTv0_n12_N7android22ISurfaceComposerClientD1Ev
_ZTv0_n12_N7android23BnSurfaceComposerClientD0Ev
_ZTv0_n12_N7android23BnSurfaceComposerClientD1Ev
_ZTv0_n12_N7android23BpSurfaceComposerClientD0Ev
_ZTv0_n12_N7android23BpSurfaceComposerClientD1Ev
_ZTv0_n12_N7android7BBinderD0Ev
_ZTv0_n12_N7android7BBinderD1Ev
_ZTv0_n12_N7android7IBinderD0Ev
_ZTv0_n12_N7android7IBinderD1Ev
_ZTv0_n12_N7android8ISurfaceD0Ev
_ZTv0_n12_N7android8ISurfaceD1Ev
_ZTv0_n12_N7android9BnSurfaceD0Ev
_ZTv0_n12_N7android9BnSurfaceD1Ev
_ZTv0_n12_N7android9BpRefBaseD0Ev
_ZTv0_n12_N7android9BpRefBaseD1Ev
_ZTv0_n12_N7android9BpSurfaceD0Ev
_ZTv0_n12_N7android9BpSurfaceD1Ev
_ZTv0_n16_N7android9BpRefBase10onFirstRefEv
_ZTv0_n20_N7android9BpRefBase15onLastStrongRefEPKv
_ZTv0_n24_N7android9BpRefBase20onIncStrongAttemptedEjPKv
