_ZGVN7android9SingletonINS_10GraphicLogEE5sLockE
_ZGVN7android9SingletonINS_19GraphicBufferMapperEE5sLockE
_ZGVN7android9SingletonINS_22GraphicBufferAllocatorEE5sLockE
_ZN15KeyCharacterMap10getKeyDataEiPtS0_S0_
_ZN15KeyCharacterMap15getDisplayLabelEi
_ZN15KeyCharacterMap3getEii
_ZN15KeyCharacterMap4loadEi
_ZN15KeyCharacterMap8find_keyEi
_ZN15KeyCharacterMap8getMatchEiPKtij
_ZN15KeyCharacterMap8try_fileEPKc
_ZN15KeyCharacterMap9find_charEtPjS0_
_ZN15KeyCharacterMap9getEventsEPtjPN7android6VectorIiEEPNS2_IjEE
_ZN15KeyCharacterMap9getNumberEi
_ZN15KeyCharacterMapC1Ev
_ZN15KeyCharacterMapC2Ev
_ZN15KeyCharacterMapD1Ev
_ZN15KeyCharacterMapD2Ev
_ZN7android10GraphicLog10setEnabledEb
_ZN7android10GraphicLog7logImplEii
_ZN7android10GraphicLog7logImplEiii
_ZN7android10GraphicLogC1Ev
_ZN7android10GraphicLogC2Ev
_ZN7android10IInterface8asBinderEv
_ZN7android10IInterfaceC2Ev
_ZN7android10IInterfaceD0Ev
_ZN7android10IInterfaceD1Ev
_ZN7android10IInterfaceD2Ev
_ZN7android10InputEvent10initializeERKS0_
_ZN7android10InputEvent10initializeEii
_ZN7android10OverlayRef13writeToParcelEPNS_6ParcelERKNS_2spIS0_EE
_ZN7android10OverlayRef14readFromParcelERKNS_6ParcelE
_ZN7android10OverlayRefC1EPK15native_handle_tRKNS_2spINS_8IOverlayEEEjjijj
_ZN7android10OverlayRefC1Ev
_ZN7android10OverlayRefC2EPK15native_handle_tRKNS_2spINS_8IOverlayEEEjjijj
_ZN7android10OverlayRefC2Ev
_ZN7android10OverlayRefD0Ev
_ZN7android10OverlayRefD1Ev
_ZN7android10OverlayRefD2Ev
_ZN7android10VectorImpl11appendArrayEPKvj
_ZN7android10VectorImpl11setCapacityEj
_ZN7android10VectorImpl12appendVectorERKS0_
_ZN7android10VectorImpl13editArrayImplEv
_ZN7android10VectorImpl13finish_vectorEv
_ZN7android10VectorImpl13removeItemsAtEjj
_ZN7android10VectorImpl16editItemLocationEj
_ZN7android10VectorImpl19reservedVectorImpl1Ev
_ZN7android10VectorImpl19reservedVectorImpl2Ev
_ZN7android10VectorImpl19reservedVectorImpl3Ev
_ZN7android10VectorImpl19reservedVectorImpl4Ev
_ZN7android10VectorImpl19reservedVectorImpl5Ev
_ZN7android10VectorImpl19reservedVectorImpl6Ev
_ZN7android10VectorImpl19reservedVectorImpl7Ev
_ZN7android10VectorImpl19reservedVectorImpl8Ev
_ZN7android10VectorImpl3addEPKv
_ZN7android10VectorImpl3addEv
_ZN7android10VectorImpl3popEv
_ZN7android10VectorImpl4pushEPKv
_ZN7android10VectorImpl4pushEv
_ZN7android10VectorImpl5clearEv
_ZN7android10VectorImpl8insertAtEjj
_ZN7android10VectorImplC2ERKS0_
_ZN7android10VectorImplC2Ejj
_ZN7android10VectorImplD2Ev
_ZN7android10VectorImplaSERKS0_
_ZN7android11BnInterfaceINS_8IOverlayEE10onAsBinderEv
_ZN7android11FlattenableD2Ev
_ZN7android11InputDevice12getMetaStateEv
_ZN7android11InputDevice13getDeviceInfoEPNS_15InputDeviceInfoE
_ZN7android11InputDevice14getSwitchStateEji
_ZN7android11InputDevice15getKeyCodeStateEji
_ZN7android11InputDevice16getScanCodeStateEji
_ZN7android11InputDevice21markSupportedKeyCodesEjjPKiPh
_ZN7android11InputDevice4dumpERNS_7String8E
_ZN7android11InputDevice5resetEv
_ZN7android11InputDevice7processEPKNS_8RawEventE
_ZN7android11InputDevice8getStateEjiMNS_11InputMapperEFijiE
_ZN7android11InputDevice9addMapperEPNS_11InputMapperE
_ZN7android11InputDevice9configureEv
_ZN7android11InputDeviceC1EPNS_18InputReaderContextEiRKNS_7String8E
_ZN7android11InputDeviceC2EPNS_18InputReaderContextEiRKNS_7String8E
_ZN7android11InputDeviceD1Ev
_ZN7android11InputDeviceD2Ev
_ZN7android11InputMapper12getMetaStateEv
_ZN7android11InputMapper14getSwitchStateEji
_ZN7android11InputMapper15getKeyCodeStateEji
_ZN7android11InputMapper16getScanCodeStateEji
_ZN7android11InputMapper18populateDeviceInfoEPNS_15InputDeviceInfoE
_ZN7android11InputMapper21markSupportedKeyCodesEjjPKiPh
_ZN7android11InputMapper4dumpERNS_7String8E
_ZN7android11InputMapper5resetEv
_ZN7android11InputMapper9configureEv
_ZN7android11InputMapperC1EPNS_11InputDeviceE
_ZN7android11InputMapperC2EPNS_11InputDeviceE
_ZN7android11InputMapperD0Ev
_ZN7android11InputMapperD1Ev
_ZN7android11InputMapperD2Ev
_ZN7android11InputReader12consumeEventEPKNS_8RawEventE
_ZN7android11InputReader12createDeviceEiRKNS_7String8Ej
_ZN7android11InputReader12removeDeviceEi
_ZN7android11InputReader14getSwitchStateEiji
_ZN7android11InputReader15getKeyCodeStateEiji
_ZN7android11InputReader16getScanCodeStateEiji
_ZN7android11InputReader17getInputDeviceIdsERNS_6VectorIiEE
_ZN7android11InputReader18getGlobalMetaStateEv
_ZN7android11InputReader18getInputDeviceInfoEiPNS_15InputDeviceInfoE
_ZN7android11InputReader20shouldDropVirtualKeyExPNS_11InputDeviceEii
_ZN7android11InputReader21getInputConfigurationEPNS_18InputConfigurationE
_ZN7android11InputReader21markSupportedKeyCodesEijjPKiPh
_ZN7android11InputReader21updateGlobalMetaStateEv
_ZN7android11InputReader23disableVirtualKeysUntilEx
_ZN7android11InputReader24configureExcludedDevicesEv
_ZN7android11InputReader24updateInputConfigurationEv
_ZN7android11InputReader26handleConfigurationChangedEx
_ZN7android11InputReader4dumpERNS_7String8E
_ZN7android11InputReader7hasKeysEijjPKiPh
_ZN7android11InputReader7processEPKNS_8RawEventE
_ZN7android11InputReader8getStateEijiMNS_11InputDeviceEFijiE
_ZN7android11InputReader8loopOnceEv
_ZN7android11InputReader9addDeviceEi
_ZN7android11InputReaderC1ERKNS_2spINS_17EventHubInterfaceEEERKNS1_INS_26InputReaderPolicyInterfaceEEERKNS1_INS_24InputDispatcherInterfaceEEE
_ZN7android11InputReaderC2ERKNS_2spINS_17EventHubInterfaceEEERKNS1_INS_26InputReaderPolicyInterfaceEEERKNS1_INS_24InputDispatcherInterfaceEEE
_ZN7android11InputReaderD0Ev
_ZN7android11InputReaderD1Ev
_ZN7android11InputReaderD2Ev
_ZN7android11MotionEvent10initializeEiiiiiiffffxxjPKiPKNS_13PointerCoordsE
_ZN7android11MotionEvent14offsetLocationEff
_ZN7android11MotionEvent9addSampleExPKNS_13PointerCoordsE
_ZN7android12InputChannel10sendSignalEc
_ZN7android12InputChannel13receiveSignalEPc
_ZN7android12InputChannel20openInputChannelPairERKNS_7String8ERNS_2spIS0_EES6_
_ZN7android12InputChannelC1ERKNS_7String8Eiii
_ZN7android12InputChannelC2ERKNS_7String8Eiii
_ZN7android12InputChannelD0Ev
_ZN7android12InputChannelD1Ev
_ZN7android12InputChannelD2Ev
_ZN7android12InputManager10initializeEv
_ZN7android12InputManager13getDispatcherEv
_ZN7android12InputManager4stopEv
_ZN7android12InputManager5startEv
_ZN7android12InputManager9getReaderEv
_ZN7android12InputManagerC1ERKNS_2spINS_17EventHubInterfaceEEERKNS1_INS_26InputReaderPolicyInterfaceEEERKNS1_INS_30InputDispatcherPolicyInterfaceEEE
_ZN7android12InputManagerC1ERKNS_2spINS_20InputReaderInterfaceEEERKNS1_INS_24InputDispatcherInterfaceEEE
_ZN7android12InputManagerC2ERKNS_2spINS_17EventHubInterfaceEEERKNS1_INS_26InputReaderPolicyInterfaceEEERKNS1_INS_30InputDispatcherPolicyInterfaceEEE
_ZN7android12InputManagerC2ERKNS_2spINS_20InputReaderInterfaceEEERKNS1_INS_24InputDispatcherInterfaceEEE
_ZN7android12InputManagerD0Ev
_ZN7android12InputManagerD1Ev
_ZN7android12InputManagerD2Ev
_ZN7android12KeyLayoutMap4loadEPKc
_ZN7android12KeyLayoutMapC1Ev
_ZN7android12KeyLayoutMapC2Ev
_ZN7android12KeyLayoutMapD1Ev
_ZN7android12KeyLayoutMapD2Ev
_ZN7android12bitsPerPixelEi
_ZN7android12compare_typeINS_16key_value_pair_tINS_7String8ES2_EEEEiRKT_S6_
_ZN7android13GraphicBuffer10reallocateEjjij
_ZN7android13GraphicBuffer11free_handleEv
_ZN7android13GraphicBuffer26dumpAllocationsToSystemLogEv
_ZN7android13GraphicBuffer4lockEP10GGLSurfacej
_ZN7android13GraphicBuffer4lockEjPPv
_ZN7android13GraphicBuffer4lockEjRKNS_4RectEPPv
_ZN7android13GraphicBuffer6unlockEv
_ZN7android13GraphicBuffer8initSizeEjjij
_ZN7android13GraphicBuffer8setIndexEi
_ZN7android13GraphicBuffer9unflattenEPKvjPij
_ZN7android13GraphicBufferC1Ejjij
_ZN7android13GraphicBufferC1EjjijjP15native_handle_tb
_ZN7android13GraphicBufferC1Ev
_ZN7android13GraphicBufferC2Ejjij
_ZN7android13GraphicBufferC2EjjijjP15native_handle_tb
_ZN7android13GraphicBufferC2Ev
_ZN7android13GraphicBufferD0Ev
_ZN7android13GraphicBufferD1Ev
_ZN7android13GraphicBufferD2Ev
_ZN7android13InputConsumer10initializeEv
_ZN7android13InputConsumer18sendFinishedSignalEv
_ZN7android13InputConsumer21receiveDispatchSignalEv
_ZN7android13InputConsumer7consumeEPNS_26InputEventFactoryInterfaceEPPNS_10InputEventE
_ZN7android13InputConsumerC1ERKNS_2spINS_12InputChannelEEE
_ZN7android13InputConsumerC2ERKNS_2spINS_12InputChannelEEE
_ZN7android13InputConsumerD1Ev
_ZN7android13InputConsumerD2Ev
_ZN7android13bytesPerPixelEi
_ZN7android13rotateKeyCodeEii
_ZN7android14InputPublisher10initializeEv
_ZN7android14InputPublisher15publishKeyEventEiiiiiiiixx
_ZN7android14InputPublisher17publishInputEventEiii
_ZN7android14InputPublisher18appendMotionSampleExPKNS_13PointerCoordsE
_ZN7android14InputPublisher18publishMotionEventEiiiiiiffffxxjPKiPKNS_13PointerCoordsE
_ZN7android14InputPublisher18sendDispatchSignalEv
_ZN7android14InputPublisher21receiveFinishedSignalEv
_ZN7android14InputPublisher5resetEv
_ZN7android14InputPublisherC1ERKNS_2spINS_12InputChannelEEE
_ZN7android14InputPublisherC2ERKNS_2spINS_12InputChannelEEE
_ZN7android14InputPublisherD1Ev
_ZN7android14InputPublisherD2Ev
_ZN7android15EventRecurrence5parseERKNS_8String16E
_ZN7android15EventRecurrenceC1Ev
_ZN7android15EventRecurrenceC2Ev
_ZN7android15EventRecurrenceD1Ev
_ZN7android15EventRecurrenceD2Ev
_ZN7android15InputDeviceInfo10initializeEiRKNS_7String8E
_ZN7android15InputDeviceInfo14addMotionRangeEiRKNS0_11MotionRangeE
_ZN7android15InputDeviceInfo14addMotionRangeEiffff
_ZN7android15InputDeviceInfo9addSourceEj
_ZN7android15InputDeviceInfoC1ERKS0_
_ZN7android15InputDeviceInfoC1Ev
_ZN7android15InputDeviceInfoC2ERKS0_
_ZN7android15InputDeviceInfoC2Ev
_ZN7android15InputDeviceInfoD1Ev
_ZN7android15InputDeviceInfoD2Ev
_ZN7android15InputDispatcher10Connection10initializeEv
_ZN7android15InputDispatcher10ConnectionC1ERKNS_2spINS_12InputChannelEEE
_ZN7android15InputDispatcher10ConnectionC2ERKNS_2spINS_12InputChannelEEE
_ZN7android15InputDispatcher10ConnectionD0Ev
_ZN7android15InputDispatcher10ConnectionD1Ev
_ZN7android15InputDispatcher10ConnectionD2Ev
_ZN7android15InputDispatcher10InputState10trackEventEPKNS0_10EventEntryE
_ZN7android15InputDispatcher10InputState11trackMotionEPKNS0_11MotionEntryE
_ZN7android15InputDispatcher10InputState13MotionMemento11setPointersEPKNS0_11MotionEntryE
_ZN7android15InputDispatcher10InputState17shouldCancelEventEiNS1_18CancelationOptionsE
_ZN7android15InputDispatcher10InputState27synthesizeCancelationEventsExPNS0_9AllocatorERNS_6VectorIPNS0_10EventEntryEEENS1_18CancelationOptionsE
_ZN7android15InputDispatcher10InputState5clearEv
_ZN7android15InputDispatcher10InputState8trackKeyEPKNS0_8KeyEntryE
_ZN7android15InputDispatcher10InputStateC1Ev
_ZN7android15InputDispatcher10InputStateC2Ev
_ZN7android15InputDispatcher10InputStateD1Ev
_ZN7android15InputDispatcher10InputStateD2Ev
_ZN7android15InputDispatcher10TouchState17addOrUpdateWindowEPKNS_11InputWindowEiNS_8BitSet32E
_ZN7android15InputDispatcher10TouchState24getFirstForegroundWindowEv
_ZN7android15InputDispatcher10TouchState25removeOutsideTouchWindowsEv
_ZN7android15InputDispatcher10TouchState5resetEv
_ZN7android15InputDispatcher10TouchState8copyFromERKS1_
_ZN7android15InputDispatcher10TouchStateC1Ev
_ZN7android15InputDispatcher10TouchStateC2Ev
_ZN7android15InputDispatcher10TouchStateD1Ev
_ZN7android15InputDispatcher10TouchStateD2Ev
_ZN7android15InputDispatcher11onANRLockedExPKNS_16InputApplicationEPKNS_11InputWindowExx
_ZN7android15InputDispatcher12CommandEntryC1Ev
_ZN7android15InputDispatcher12CommandEntryC2Ev
_ZN7android15InputDispatcher12CommandEntryD1Ev
_ZN7android15InputDispatcher12CommandEntryD2Ev
_ZN7android15InputDispatcher12dispatchOnceEv
_ZN7android15InputDispatcher12notifyMotionExiijiiiijPKiPKNS_13PointerCoordsEffx
_ZN7android15InputDispatcher12notifySwitchExiij
_ZN7android15InputDispatcher15getWindowLockedERKNS_2spINS_12InputChannelEEE
_ZN7android15InputDispatcher15setInputWindowsERKNS_6VectorINS_11InputWindowEEE
_ZN7android15InputDispatcher16injectInputEventEPKNS_10InputEventEiiii
_ZN7android15InputDispatcher16splitMotionEventEPKNS0_11MotionEntryENS_8BitSet32E
_ZN7android15InputDispatcher17dispatchKeyLockedExPNS0_8KeyEntryExPNS0_10DropReasonEPx
_ZN7android15InputDispatcher17postCommandLockedEMS0_FvPNS0_12CommandEntryEE
_ZN7android15InputDispatcher18isAppSwitchKeyCodeEi
_ZN7android15InputDispatcher18resetTargetsLockedEv
_ZN7android15InputDispatcher19commitTargetsLockedEv
_ZN7android15InputDispatcher20dispatchMotionLockedExPNS0_11MotionEntryEPNS0_10DropReasonEPx
_ZN7android15InputDispatcher20registerInputChannelERKNS_2spINS_12InputChannelEEEb
_ZN7android15InputDispatcher20resetKeyRepeatLockedEv
_ZN7android15InputDispatcher20setInputDispatchModeEbb
_ZN7android15InputDispatcher21addWindowTargetLockedEPKNS_11InputWindowEiNS_8BitSet32E
_ZN7android15InputDispatcher21handleReceiveCallbackEiiPv
_ZN7android15InputDispatcher21setFocusedApplicationEPKNS_16InputApplicationE
_ZN7android15InputDispatcher22dropInboundEventLockedEPNS0_10EventEntryENS0_10DropReasonE
_ZN7android15InputDispatcher22hasInjectionPermissionEii
_ZN7android15InputDispatcher22logDispatchStateLockedEv
_ZN7android15InputDispatcher22pokeUserActivityLockedEPKNS0_10EventEntryE
_ZN7android15InputDispatcher22resetANRTimeoutsLockedEv
_ZN7android15InputDispatcher22unregisterInputChannelERKNS_2spINS_12InputChannelEEE
_ZN7android15InputDispatcher23dispatchOnceInnerLockedExxPx
_ZN7android15InputDispatcher23drainInboundQueueLockedEv
_ZN7android15InputDispatcher23dumpDispatchStateLockedERNS_7String8E
_ZN7android15InputDispatcher24activateConnectionLockedEPNS0_10ConnectionE
_ZN7android15InputDispatcher24checkInjectionPermissionEPKNS_11InputWindowEPKNS0_14InjectionStateE
_ZN7android15InputDispatcher24drainOutboundQueueLockedEPNS0_10ConnectionE
_ZN7android15InputDispatcher24getConnectionIndexLockedERKNS_2spINS_12InputChannelEEE
_ZN7android15InputDispatcher24isAppSwitchPendingLockedEv
_ZN7android15InputDispatcher24setInjectionResultLockedEPNS0_10EventEntryEi
_ZN7android15InputDispatcher24startDispatchCycleLockedExRKNS_2spINS0_10ConnectionEEE
_ZN7android15InputDispatcher25enqueueInboundEventLockedEPNS0_10EventEntryE
_ZN7android15InputDispatcher25finishDispatchCycleLockedExRKNS_2spINS0_10ConnectionEEE
_ZN7android15InputDispatcher25isAppSwitchKeyEventLockedEPNS0_8KeyEntryE
_ZN7android15InputDispatcher25releaseInboundEventLockedEPNS0_10EventEntryE
_ZN7android15InputDispatcher25releasePendingEventLockedEv
_ZN7android15InputDispatcher25synthesizeKeyRepeatLockedExx
_ZN7android15InputDispatcher26addMonitoringTargetsLockedEv
_ZN7android15InputDispatcher26deactivateConnectionLockedEPNS0_10ConnectionE
_ZN7android15InputDispatcher26notifyConfigurationChangedEx
_ZN7android15InputDispatcher26prepareDispatchCycleLockedExRKNS_2spINS0_10ConnectionEEEPNS0_10EventEntryEPKNS_11InputTargetEb
_ZN7android15InputDispatcher27handleTargetsNotReadyLockedExPKNS0_10EventEntryEPKNS_16InputApplicationEPKNS_11InputWindowEPx
_ZN7android15InputDispatcher27logOutboundKeyDetailsLockedEPKcPKNS0_8KeyEntryE
_ZN7android15InputDispatcher27onDispatchCycleBrokenLockedExRKNS_2spINS0_10ConnectionEEE
_ZN7android15InputDispatcher27resetPendingAppSwitchLockedEb
_ZN7android15InputDispatcher28onDispatchCycleStartedLockedExRKNS_2spINS0_10ConnectionEEE
_ZN7android15InputDispatcher28resetAndDropEverythingLockedEPKc
_ZN7android15InputDispatcher28startNextDispatchCycleLockedExRKNS_2spINS0_10ConnectionEEE
_ZN7android15InputDispatcher29onDispatchCycleFinishedLockedExRKNS_2spINS0_10ConnectionEEE
_ZN7android15InputDispatcher30abortBrokenDispatchCycleLockedExRKNS_2spINS0_10ConnectionEEE
_ZN7android15InputDispatcher30doNotifyANRLockedInterruptibleEPNS0_12CommandEntryE
_ZN7android15InputDispatcher30findFocusedWindowTargetsLockedExPKNS0_10EventEntryEPx
_ZN7android15InputDispatcher30findTouchedWindowTargetsLockedExPKNS0_11MotionEntryEPx
_ZN7android15InputDispatcher30logOutboundMotionDetailsLockedEPKcPKNS0_11MotionEntryE
_ZN7android15InputDispatcher30runCommandsLockedInterruptibleEv
_ZN7android15InputDispatcher30updateDispatchStatisticsLockedExPKNS0_10EventEntryEix
_ZN7android15InputDispatcher31getApplicationWindowLabelLockedEPKNS_16InputApplicationEPKNS_11InputWindowE
_ZN7android15InputDispatcher31releaseFocusedApplicationLockedEv
_ZN7android15InputDispatcher34dispatchConfigurationChangedLockedExPNS0_25ConfigurationChangedEntryE
_ZN7android15InputDispatcher37doPokeUserActivityLockedInterruptibleEPNS0_12CommandEntryE
_ZN7android15InputDispatcher39getTimeSpentWaitingForApplicationLockedEx
_ZN7android15InputDispatcher39isWindowFinishedWithPreviousInputLockedEPKNS_11InputWindowE
_ZN7android15InputDispatcher39resumeAfterTargetsNotReadyTimeoutLockedExRKNS_2spINS_12InputChannelEEE
_ZN7android15InputDispatcher40dispatchEventToCurrentInputTargetsLockedExPNS0_10EventEntryEb
_ZN7android15InputDispatcher41doNotifyConfigurationChangedInterruptibleEPNS0_12CommandEntryE
_ZN7android15InputDispatcher42decrementPendingForegroundDispatchesLockedEPNS0_10EventEntryE
_ZN7android15InputDispatcher42incrementPendingForegroundDispatchesLockedEPNS0_10EventEntryE
_ZN7android15InputDispatcher45doNotifyInputChannelBrokenLockedInterruptibleEPNS0_12CommandEntryE
_ZN7android15InputDispatcher46synthesizeCancelationEventsForConnectionLockedERKNS_2spINS0_10ConnectionEEENS0_10InputState18CancelationOptionsEPKc
_ZN7android15InputDispatcher48synthesizeCancelationEventsForInputChannelLockedERKNS_2spINS_12InputChannelEEENS0_10InputState18CancelationOptionsEPKc
_ZN7android15InputDispatcher4dumpERNS_7String8E
_ZN7android15InputDispatcher50doInterceptKeyBeforeDispatchingLockedInterruptibleEPNS0_12CommandEntryE
_ZN7android15InputDispatcher50synthesizeCancelationEventsForAllConnectionsLockedENS0_10InputState18CancelationOptionsEPKc
_ZN7android15InputDispatcher9Allocator14obtainKeyEntryExiijiiiiiix
_ZN7android15InputDispatcher9Allocator15recycleKeyEntryEPNS0_8KeyEntryE
_ZN7android15InputDispatcher9Allocator15releaseKeyEntryEPNS0_8KeyEntryE
_ZN7android15InputDispatcher9Allocator17obtainMotionEntryExiijiiiiffxjPKiPKNS_13PointerCoordsE
_ZN7android15InputDispatcher9Allocator17releaseEventEntryEPNS0_10EventEntryE
_ZN7android15InputDispatcher9Allocator18appendMotionSampleEPNS0_11MotionEntryExPKNS_13PointerCoordsE
_ZN7android15InputDispatcher9Allocator18obtainCommandEntryEMS0_FvPNS0_12CommandEntryEE
_ZN7android15InputDispatcher9Allocator18releaseMotionEntryEPNS0_11MotionEntryE
_ZN7android15InputDispatcher9Allocator19obtainDispatchEntryEPNS0_10EventEntryEiff
_ZN7android15InputDispatcher9Allocator19releaseCommandEntryEPNS0_12CommandEntryE
_ZN7android15InputDispatcher9Allocator20initializeEventEntryEPNS0_10EventEntryEixj
_ZN7android15InputDispatcher9Allocator20obtainInjectionStateEii
_ZN7android15InputDispatcher9Allocator20releaseDispatchEntryEPNS0_13DispatchEntryE
_ZN7android15InputDispatcher9Allocator21releaseInjectionStateEPNS0_14InjectionStateE
_ZN7android15InputDispatcher9Allocator31obtainConfigurationChangedEntryEx
_ZN7android15InputDispatcher9Allocator31releaseEventEntryInjectionStateEPNS0_10EventEntryE
_ZN7android15InputDispatcher9Allocator32releaseConfigurationChangedEntryEPNS0_25ConfigurationChangedEntryE
_ZN7android15InputDispatcher9AllocatorC1Ev
_ZN7android15InputDispatcher9AllocatorC2Ev
_ZN7android15InputDispatcher9notifyKeyExiijiiiiix
_ZN7android15InputDispatcherC1ERKNS_2spINS_30InputDispatcherPolicyInterfaceEEE
_ZN7android15InputDispatcherC2ERKNS_2spINS_30InputDispatcherPolicyInterfaceEEE
_ZN7android15InputDispatcherD0Ev
_ZN7android15InputDispatcherD1Ev
_ZN7android15InputDispatcherD2Ev
_ZN7android15updateMetaStateEibi
_ZN7android16SortedVectorImpl25reservedSortedVectorImpl1Ev
_ZN7android16SortedVectorImpl25reservedSortedVectorImpl2Ev
_ZN7android16SortedVectorImpl25reservedSortedVectorImpl3Ev
_ZN7android16SortedVectorImpl25reservedSortedVectorImpl4Ev
_ZN7android16SortedVectorImpl25reservedSortedVectorImpl5Ev
_ZN7android16SortedVectorImpl25reservedSortedVectorImpl6Ev
_ZN7android16SortedVectorImpl25reservedSortedVectorImpl7Ev
_ZN7android16SortedVectorImpl25reservedSortedVectorImpl8Ev
_ZN7android16SortedVectorImpl3addEPKv
_ZN7android16SortedVectorImpl6removeEPKv
_ZN7android16SortedVectorImplC2Ejj
_ZN7android16SortedVectorImplD2Ev
_ZN7android16TouchInputMapper10getSourcesEv
_ZN7android16TouchInputMapper11dumpRawAxesERNS_7String8E
_ZN7android16TouchInputMapper13dispatchTouchExjPNS0_9TouchDataENS_8BitSet32Ejji
_ZN7android16TouchInputMapper14detectGesturesEx
_ZN7android16TouchInputMapper14dumpParametersERNS_7String8E
_ZN7android16TouchInputMapper15dispatchTouchesExj
_ZN7android16TouchInputMapper15dumpCalibrationERNS_7String8E
_ZN7android16TouchInputMapper15getKeyCodeStateEji
_ZN7android16TouchInputMapper16configureRawAxesEv
_ZN7android16TouchInputMapper16getScanCodeStateEji
_ZN7android16TouchInputMapper16initializeLockedEv
_ZN7android16TouchInputMapper16parseCalibrationEv
_ZN7android16TouchInputMapper17dumpSurfaceLockedERNS_7String8E
_ZN7android16TouchInputMapper18populateDeviceInfoEPNS_15InputDeviceInfoE
_ZN7android16TouchInputMapper18resolveCalibrationEv
_ZN7android16TouchInputMapper19applyBadTouchFilterEv
_ZN7android16TouchInputMapper19calculatePointerIdsEv
_ZN7android16TouchInputMapper19configureParametersEv
_ZN7android16TouchInputMapper21applyJumpyTouchFilterEv
_ZN7android16TouchInputMapper21dumpVirtualKeysLockedERNS_7String8E
_ZN7android16TouchInputMapper21markSupportedKeyCodesEjjPKiPh
_ZN7android16TouchInputMapper22configureSurfaceLockedEv
_ZN7android16TouchInputMapper23consumeOffScreenTouchesExj
_ZN7android16TouchInputMapper23findVirtualKeyHitLockedEii
_ZN7android16TouchInputMapper25applyAveragingTouchFilterEv
_ZN7android16TouchInputMapper26configureVirtualKeysLockedEv
_ZN7android16TouchInputMapper26isPointInsideSurfaceLockedEii
_ZN7android16TouchInputMapper4dumpERNS_7String8E
_ZN7android16TouchInputMapper5resetEv
_ZN7android16TouchInputMapper9configureEv
_ZN7android16TouchInputMapper9syncTouchExb
_ZN7android16TouchInputMapperC1EPNS_11InputDeviceEi
_ZN7android16TouchInputMapperC2EPNS_11InputDeviceEi
_ZN7android16TouchInputMapperD0Ev
_ZN7android16TouchInputMapperD1Ev
_ZN7android16TouchInputMapperD2Ev
_ZN7android17InputReaderThread10threadLoopEv
_ZN7android17InputReaderThreadC1ERKNS_2spINS_20InputReaderInterfaceEEE
_ZN7android17InputReaderThreadC2ERKNS_2spINS_20InputReaderInterfaceEEE
_ZN7android17InputReaderThreadD0Ev
_ZN7android17InputReaderThreadD1Ev
_ZN7android17InputReaderThreadD2Ev
_ZN7android17SwitchInputMapper10getSourcesEv
_ZN7android17SwitchInputMapper13processSwitchExii
_ZN7android17SwitchInputMapper14getSwitchStateEji
_ZN7android17SwitchInputMapper7processEPKNS_8RawEventE
_ZN7android17SwitchInputMapperC1EPNS_11InputDeviceE
_ZN7android17SwitchInputMapperC2EPNS_11InputDeviceE
_ZN7android17SwitchInputMapperD0Ev
_ZN7android17SwitchInputMapperD1Ev
_ZN7android17SwitchInputMapperD2Ev
_ZN7android17move_forward_typeINS_11InputTargetEEEvPT_PKS2_j
_ZN7android17move_forward_typeINS_11InputWindowEEEvPT_PKS2_j
_ZN7android17move_forward_typeINS_15InputDispatcher13TouchedWindowEEEvPT_PKS3_j
_ZN7android17move_forward_typeINS_16key_value_pair_tINS_7String8ES2_EEEEvPT_PKS4_j
_ZN7android17move_forward_typeINS_7String8EEEvPT_PKS2_j
_ZN7android18getPixelFormatInfoEiPNS_15PixelFormatInfoE
_ZN7android18move_backward_typeINS_11InputTargetEEEvPT_PKS2_j
_ZN7android18move_backward_typeINS_11InputWindowEEEvPT_PKS2_j
_ZN7android18move_backward_typeINS_15InputDispatcher13TouchedWindowEEEvPT_PKS3_j
_ZN7android18move_backward_typeINS_16key_value_pair_tINS_7String8ES2_EEEEvPT_PKS4_j
_ZN7android18move_backward_typeINS_7String8EEEvPT_PKS2_j
_ZN7android19GraphicBufferMapper14registerBufferEPK15native_handle_t
_ZN7android19GraphicBufferMapper16unregisterBufferEPK15native_handle_t
_ZN7android19GraphicBufferMapper4lockEPK15native_handle_tiRKNS_4RectEPPv
_ZN7android19GraphicBufferMapper6unlockEPK15native_handle_t
_ZN7android19GraphicBufferMapperC1Ev
_ZN7android19GraphicBufferMapperC2Ev
_ZN7android19KeyboardInputMapper10getSourcesEv
_ZN7android19KeyboardInputMapper10processKeyExbiij
_ZN7android19KeyboardInputMapper12getMetaStateEv
_ZN7android19KeyboardInputMapper15getKeyCodeStateEji
_ZN7android19KeyboardInputMapper16getScanCodeStateEji
_ZN7android19KeyboardInputMapper16initializeLockedEv
_ZN7android19KeyboardInputMapper17findKeyDownLockedEi
_ZN7android19KeyboardInputMapper18populateDeviceInfoEPNS_15InputDeviceInfoE
_ZN7android19KeyboardInputMapper21markSupportedKeyCodesEjjPKiPh
_ZN7android19KeyboardInputMapper22isKeyboardOrGamepadKeyEi
_ZN7android19KeyboardInputMapper4dumpERNS_7String8E
_ZN7android19KeyboardInputMapper5resetEv
_ZN7android19KeyboardInputMapper7processEPKNS_8RawEventE
_ZN7android19KeyboardInputMapperC1EPNS_11InputDeviceEiji
_ZN7android19KeyboardInputMapperC2EPNS_11InputDeviceEiji
_ZN7android19KeyboardInputMapperD0Ev
_ZN7android19KeyboardInputMapperD1Ev
_ZN7android19KeyboardInputMapperD2Ev
_ZN7android19sw_gralloc_handle_t14registerBufferEPS0_
_ZN7android19sw_gralloc_handle_t16unregisterBufferEPS0_
_ZN7android19sw_gralloc_handle_t4freeEPS0_
_ZN7android19sw_gralloc_handle_t4lockEPS0_iiiiiPPv
_ZN7android19sw_gralloc_handle_t5allocEjjiiPPK15native_handle_tPi
_ZN7android19sw_gralloc_handle_t6unlockEPS0_
_ZN7android20TrackballInputMapper10getSourcesEv
_ZN7android20TrackballInputMapper16getScanCodeStateEji
_ZN7android20TrackballInputMapper16initializeLockedEv
_ZN7android20TrackballInputMapper18populateDeviceInfoEPNS_15InputDeviceInfoE
_ZN7android20TrackballInputMapper4dumpERNS_7String8E
_ZN7android20TrackballInputMapper4syncEx
_ZN7android20TrackballInputMapper5resetEv
_ZN7android20TrackballInputMapper7processEPKNS_8RawEventE
_ZN7android20TrackballInputMapperC1EPNS_11InputDeviceEi
_ZN7android20TrackballInputMapperC2EPNS_11InputDeviceEi
_ZN7android20TrackballInputMapperD0Ev
_ZN7android20TrackballInputMapperD1Ev
_ZN7android20TrackballInputMapperD2Ev
_ZN7android21InputDispatcherThread10threadLoopEv
_ZN7android21InputDispatcherThreadC1ERKNS_2spINS_24InputDispatcherInterfaceEEE
_ZN7android21InputDispatcherThreadC2ERKNS_2spINS_24InputDispatcherInterfaceEEE
_ZN7android21InputDispatcherThreadD0Ev
_ZN7android21InputDispatcherThreadD1Ev
_ZN7android21InputDispatcherThreadD2Ev
_ZN7android21MultiTouchInputMapper10initializeEv
_ZN7android21MultiTouchInputMapper16configureRawAxesEv
_ZN7android21MultiTouchInputMapper4syncEx
_ZN7android21MultiTouchInputMapper5resetEv
_ZN7android21MultiTouchInputMapper7processEPKNS_8RawEventE
_ZN7android21MultiTouchInputMapperC1EPNS_11InputDeviceEi
_ZN7android21MultiTouchInputMapperC2EPNS_11InputDeviceEi
_ZN7android21MultiTouchInputMapperD0Ev
_ZN7android21MultiTouchInputMapperD1Ev
_ZN7android21MultiTouchInputMapperD2Ev
_ZN7android22GraphicBufferAllocator10sAllocListE
_ZN7android22GraphicBufferAllocator15dumpToSystemLogEv
_ZN7android22GraphicBufferAllocator4freeEPK15native_handle_t
_ZN7android22GraphicBufferAllocator5allocEjjiiPPK15native_handle_tPi
_ZN7android22GraphicBufferAllocator5sLockE
_ZN7android22GraphicBufferAllocatorC1Ev
_ZN7android22GraphicBufferAllocatorC2Ev
_ZN7android22GraphicBufferAllocatorD1Ev
_ZN7android22GraphicBufferAllocatorD2Ev
_ZN7android22InputDeviceCalibration11addPropertyERKNS_7String8ES3_
_ZN7android22InputDeviceCalibration5clearEv
_ZN7android22InputDeviceCalibrationC1Ev
_ZN7android22InputDeviceCalibrationC2Ev
_ZN7android22SingleTouchInputMapper10initializeEv
_ZN7android22SingleTouchInputMapper16configureRawAxesEv
_ZN7android22SingleTouchInputMapper4syncEx
_ZN7android22SingleTouchInputMapper5resetEv
_ZN7android22SingleTouchInputMapper7processEPKNS_8RawEventE
_ZN7android22SingleTouchInputMapperC1EPNS_11InputDeviceEi
_ZN7android22SingleTouchInputMapperC2EPNS_11InputDeviceEi
_ZN7android22SingleTouchInputMapperD0Ev
_ZN7android22SingleTouchInputMapperD1Ev
_ZN7android22SingleTouchInputMapperD2Ev
_ZN7android23FramebufferNativeWindow10lockBufferEP13ANativeWindowP23android_native_buffer_t
_ZN7android23FramebufferNativeWindow11queueBufferEP13ANativeWindowP23android_native_buffer_t
_ZN7android23FramebufferNativeWindow13dequeueBufferEP13ANativeWindowPP23android_native_buffer_t
_ZN7android23FramebufferNativeWindow15setSwapIntervalEP13ANativeWindowi
_ZN7android23FramebufferNativeWindow18setUpdateRectangleERKNS_4RectE
_ZN7android23FramebufferNativeWindow19compositionCompleteEv
_ZN7android23FramebufferNativeWindow5queryEP13ANativeWindowiPi
_ZN7android23FramebufferNativeWindow7performEP13ANativeWindowiz
_ZN7android23FramebufferNativeWindowC1Ej
_ZN7android23FramebufferNativeWindowC1Ev
_ZN7android23FramebufferNativeWindowC2Ej
_ZN7android23FramebufferNativeWindowC2Ev
_ZN7android23FramebufferNativeWindowD1Ev
_ZN7android23FramebufferNativeWindowD2Ev
_ZN7android2spINS_10OverlayRefEEaSEPS1_
_ZN7android2spINS_12InputChannelEEC1ERKS2_
_ZN7android2spINS_12InputChannelEED1Ev
_ZN7android2spINS_12InputChannelEEaSEPS1_
_ZN7android2spINS_12InputChannelEEaSERKS2_
_ZN7android2spINS_12NativeBufferEEaSEPS1_
_ZN7android2spINS_15InputDispatcher10ConnectionEEC1ERKS3_
_ZN7android2spINS_15InputDispatcher10ConnectionEED1Ev
_ZN7android2spINS_15InputDispatcher10ConnectionEEaSERKS3_
_ZN7android2spINS_17InputReaderThreadEEaSEPS1_
_ZN7android2spINS_20InputReaderInterfaceEEaSINS_11InputReaderEEERS2_PT_
_ZN7android2spINS_21InputDispatcherThreadEEaSEPS1_
_ZN7android2spINS_22InputApplicationHandleEEaSERKS2_
_ZN7android2spINS_24InputDispatcherInterfaceEEaSINS_15InputDispatcherEEERS2_PT_
_ZN7android2spINS_6LooperEEaSEPS1_
_ZN7android2spINS_8IOverlayEEaSEPS1_
_ZN7android2spINS_8IOverlayEEaSERKS2_
_ZN7android2spINS_8IOverlayEEaSINS_9BpOverlayEEERS2_PT_
_ZN7android4Rect11makeInvalidEv
_ZN7android4Rect8offsetByEii
_ZN7android4Rect8offsetToEii
_ZN7android6Looper4wakeEv
_ZN7android6Looper5addFdEiiiPFiiiPvES1_
_ZN7android6Looper8pollOnceEiPiS1_PPv
_ZN7android6Looper8removeFdEi
_ZN7android6LooperC1Eb
_ZN7android6Parcel10writeInt32Ei
_ZN7android6Parcel17writeNativeHandleEPK15native_handle_t
_ZN7android6Parcel17writeStrongBinderERKNS_2spINS_7IBinderEEE
_ZN7android6Parcel19writeInterfaceTokenERKNS_8String16E
_ZN7android6ParcelC1Ev
_ZN7android6ParcelD1Ev
_ZN7android6Region10writeEmptyEPvj
_ZN7android6Region12subtractSelfERKNS_4RectE
_ZN7android6Region12subtractSelfERKS0_
_ZN7android6Region12subtractSelfERKS0_ii
_ZN7android6Region13operationSelfERKNS_4RectEi
_ZN7android6Region13operationSelfERKS0_i
_ZN7android6Region13operationSelfERKS0_iii
_ZN7android6Region13translateSelfEii
_ZN7android6Region14makeBoundsSelfEv
_ZN7android6Region16addRectUncheckedEiiii
_ZN7android6Region17boolean_operationEiRS0_RKS0_RKNS_4RectE
_ZN7android6Region17boolean_operationEiRS0_RKS0_RKNS_4RectEii
_ZN7android6Region17boolean_operationEiRS0_RKS0_S3_
_ZN7android6Region17boolean_operationEiRS0_RKS0_S3_ii
_ZN7android6Region3setERKNS_4RectE
_ZN7android6Region3setEjj
_ZN7android6Region4readEPKv
_ZN7android6Region5clearEv
_ZN7android6Region6orSelfERKNS_4RectE
_ZN7android6Region6orSelfERKS0_
_ZN7android6Region6orSelfERKS0_ii
_ZN7android6Region7andSelfERKNS_4RectE
_ZN7android6Region7andSelfERKS0_
_ZN7android6Region7andSelfERKS0_ii
_ZN7android6Region7isEmptyEPv
_ZN7android6Region8validateERKS0_PKc
_ZN7android6Region9translateERS0_RKS0_ii
_ZN7android6Region9translateERS0_ii
_ZN7android6RegionC1EPKv
_ZN7android6RegionC1ERKNS_4RectE
_ZN7android6RegionC1ERKS0_
_ZN7android6RegionC1Ev
_ZN7android6RegionC2EPKv
_ZN7android6RegionC2ERKNS_4RectE
_ZN7android6RegionC2ERKS0_
_ZN7android6RegionC2Ev
_ZN7android6RegionD1Ev
_ZN7android6RegionD2Ev
_ZN7android6RegionaSERKS0_
_ZN7android6Thread10readyToRunEv
_ZN7android6Thread11requestExitEv
_ZN7android6Thread18requestExitAndWaitEv
_ZN7android6Thread3runEPKcij
_ZN7android6ThreadC2Eb
_ZN7android6ThreadD0Ev
_ZN7android6ThreadD1Ev
_ZN7android6ThreadD2Ev
_ZN7android7BBinder10onTransactEjRKNS_6ParcelEPS1_j
_ZN7android7BBinder10pingBinderEv
_ZN7android7BBinder11linkToDeathERKNS_2spINS_7IBinder14DeathRecipientEEEPvj
_ZN7android7BBinder11localBinderEv
_ZN7android7BBinder12attachObjectEPKvPvS3_PFvS2_S3_S3_E
_ZN7android7BBinder12detachObjectEPKv
_ZN7android7BBinder13unlinkToDeathERKNS_2wpINS_7IBinder14DeathRecipientEEEPvjPS4_
_ZN7android7BBinder4dumpEiRKNS_6VectorINS_8String16EEE
_ZN7android7BBinder8transactEjRKNS_6ParcelEPS1_j
_ZN7android7BBinderD0Ev
_ZN7android7BBinderD1Ev
_ZN7android7BBinderD2Ev
_ZN7android7IBinder11localBinderEv
_ZN7android7IBinder12remoteBinderEv
_ZN7android7IBinder19queryLocalInterfaceERKNS_8String16E
_ZN7android7IBinderD0Ev
_ZN7android7IBinderD1Ev
_ZN7android7Overlay11queueBufferEPv
_ZN7android7Overlay11resizeInputEjj
_ZN7android7Overlay12setParameterEii
_ZN7android7Overlay13dequeueBufferEPPv
_ZN7android7Overlay14set_s3d_paramsEijjj
_ZN7android7Overlay16getBufferAddressEPv
_ZN7android7Overlay7destroyEv
_ZN7android7Overlay7getCropEPjS1_S1_S1_
_ZN7android7Overlay7setCropEjjjj
_ZN7android7OverlayC1ERKNS_2spINS_10OverlayRefEEE
_ZN7android7OverlayC2ERKNS_2spINS_10OverlayRefEEE
_ZN7android7OverlayD0Ev
_ZN7android7OverlayD1Ev
_ZN7android7OverlayD2Ev
_ZN7android7RefBase10onFirstRefEv
_ZN7android7RefBase13onLastWeakRefEPKv
_ZN7android7RefBase15onLastStrongRefEPKv
_ZN7android7RefBase20onIncStrongAttemptedEjPKv
_ZN7android7RefBaseC2Ev
_ZN7android7RefBaseD2Ev
_ZN7android7String810lockBufferEj
_ZN7android7String812appendFormatEPKcz
_ZN7android7String85setToEPKc
_ZN7android7String85setToERKS0_
_ZN7android7String86appendEPKc
_ZN7android7String86appendERKS0_
_ZN7android7String8C1EPKc
_ZN7android7String8C1EPKcj
_ZN7android7String8C1ERKNS_8String16E
_ZN7android7String8C1ERKS0_
_ZN7android7String8C1Ev
_ZN7android7String8D1Ev
_ZN7android8EGLUtils26selectConfigForPixelFormatEPvPKiiPS1_
_ZN7android8EGLUtils27selectConfigForNativeWindowEPvPKiP13ANativeWindowPS1_
_ZN7android8EGLUtils8strerrorEi
_ZN7android8EventHub10openDeviceEPKc
_ZN7android8EventHub10readNotifyEi
_ZN7android8EventHub11closeDeviceEPKc
_ZN7android8EventHub17addExcludedDeviceEPKc
_ZN7android8EventHub17openPlatformInputEv
_ZN7android8EventHub4dumpERNS_7String8E
_ZN7android8EventHub7scanDirEPKc
_ZN7android8EventHub8device_tC1EiPKcS3_
_ZN7android8EventHub8device_tC2EiPKcS3_
_ZN7android8EventHub8device_tD1Ev
_ZN7android8EventHub8device_tD2Ev
_ZN7android8EventHub8getEventEPNS_8RawEventE
_ZN7android8EventHubC1Ev
_ZN7android8EventHubC2Ev
_ZN7android8EventHubD0Ev
_ZN7android8EventHubD1Ev
_ZN7android8EventHubD2Ev
_ZN7android8IOverlay10descriptorE
_ZN7android8IOverlay11asInterfaceERKNS_2spINS_7IBinderEEE
_ZN7android8IOverlayC1Ev
_ZN7android8IOverlayC2Ev
_ZN7android8IOverlayD0Ev
_ZN7android8IOverlayD1Ev
_ZN7android8IOverlayD2Ev
_ZN7android8KeyEvent10initializeERKS0_
_ZN7android8KeyEvent10initializeEiiiiiiiixx
_ZN7android8KeyEvent11isSystemKeyEi
_ZN7android8KeyEvent16hasDefaultActionEi
_ZN7android8PoolImpl8freeImplEPv
_ZN7android8PoolImpl9allocImplEv
_ZN7android8PoolImplC2Ej
_ZN7android8PoolImplD2Ev
_ZN7android8String165setToERKS0_
_ZN7android8String16C1EPKc
_ZN7android8String16C1EPKtj
_ZN7android8String16C1Ev
_ZN7android8String16D1Ev
_ZN7android9BnOverlay10onTransactEjRKNS_6ParcelEPS1_j
_ZN7android9BpRefBase10onFirstRefEv
_ZN7android9BpRefBase15onLastStrongRefEPKv
_ZN7android9BpRefBase20onIncStrongAttemptedEjPKv
_ZN7android9BpRefBaseC2ERKNS_2spINS_7IBinderEEE
_ZN7android9BpRefBaseD0Ev
_ZN7android9BpRefBaseD1Ev
_ZN7android9BpRefBaseD2Ev
_ZN7android9SingletonINS_10GraphicLogEE5sLockE
_ZN7android9SingletonINS_10GraphicLogEE9sInstanceE
_ZN7android9SingletonINS_10GraphicLogEEC1Ev
_ZN7android9SingletonINS_10GraphicLogEEC2Ev
_ZN7android9SingletonINS_10GraphicLogEED1Ev
_ZN7android9SingletonINS_10GraphicLogEED2Ev
_ZN7android9SingletonINS_19GraphicBufferMapperEE5sLockE
_ZN7android9SingletonINS_19GraphicBufferMapperEE9sInstanceE
_ZN7android9SingletonINS_19GraphicBufferMapperEEC1Ev
_ZN7android9SingletonINS_19GraphicBufferMapperEEC2Ev
_ZN7android9SingletonINS_19GraphicBufferMapperEED1Ev
_ZN7android9SingletonINS_19GraphicBufferMapperEED2Ev
_ZN7android9SingletonINS_22GraphicBufferAllocatorEE5sLockE
_ZN7android9SingletonINS_22GraphicBufferAllocatorEE9sInstanceE
_ZN7android9SingletonINS_22GraphicBufferAllocatorEEC1Ev
_ZN7android9SingletonINS_22GraphicBufferAllocatorEEC2Ev
_ZN7android9SingletonINS_22GraphicBufferAllocatorEED1Ev
_ZN7android9SingletonINS_22GraphicBufferAllocatorEED2Ev
_ZNK7android11InputWindow16isTrustedOverlayEv
_ZNK7android11InputWindow18frameContainsPointEii
_ZNK7android11InputWindow26touchableAreaContainsPointEii
_ZNK7android12KeyLayoutMap13findScancodesEiPNS_6VectorIiEE
_ZNK7android12KeyLayoutMap3mapEiPiPj
_ZNK7android12SortedVectorINS_16key_value_pair_tINS_7String8ES2_EEE10do_compareEPKvS6_
_ZNK7android12SortedVectorINS_16key_value_pair_tINS_7String8ES2_EEE10do_destroyEPvj
_ZNK7android12SortedVectorINS_16key_value_pair_tINS_7String8ES2_EEE12do_constructEPvj
_ZNK7android12SortedVectorINS_16key_value_pair_tINS_7String8ES2_EEE15do_move_forwardEPvPKvj
_ZNK7android12SortedVectorINS_16key_value_pair_tINS_7String8ES2_EEE16do_move_backwardEPvPKvj
_ZNK7android12SortedVectorINS_16key_value_pair_tINS_7String8ES2_EEE7do_copyEPvPKvj
_ZNK7android12SortedVectorINS_16key_value_pair_tINS_7String8ES2_EEE8do_splatEPvPKvj
_ZNK7android12SortedVectorINS_16key_value_pair_tIPK15native_handle_tNS_22GraphicBufferAllocator11alloc_rec_tEEEE10do_compareEPKvSA_
_ZNK7android12SortedVectorINS_16key_value_pair_tIPK15native_handle_tNS_22GraphicBufferAllocator11alloc_rec_tEEEE10do_destroyEPvj
_ZNK7android12SortedVectorINS_16key_value_pair_tIPK15native_handle_tNS_22GraphicBufferAllocator11alloc_rec_tEEEE12do_constructEPvj
_ZNK7android12SortedVectorINS_16key_value_pair_tIPK15native_handle_tNS_22GraphicBufferAllocator11alloc_rec_tEEEE15do_move_forwardEPvPKvj
_ZNK7android12SortedVectorINS_16key_value_pair_tIPK15native_handle_tNS_22GraphicBufferAllocator11alloc_rec_tEEEE16do_move_backwardEPvPKvj
_ZNK7android12SortedVectorINS_16key_value_pair_tIPK15native_handle_tNS_22GraphicBufferAllocator11alloc_rec_tEEEE7do_copyEPvPKvj
_ZNK7android12SortedVectorINS_16key_value_pair_tIPK15native_handle_tNS_22GraphicBufferAllocator11alloc_rec_tEEEE8do_splatEPvPKvj
_ZNK7android12SortedVectorINS_16key_value_pair_tIiNS_12KeyLayoutMap3KeyEEEE10do_compareEPKvS7_
_ZNK7android12SortedVectorINS_16key_value_pair_tIiNS_12KeyLayoutMap3KeyEEEE10do_destroyEPvj
_ZNK7android12SortedVectorINS_16key_value_pair_tIiNS_12KeyLayoutMap3KeyEEEE12do_constructEPvj
_ZNK7android12SortedVectorINS_16key_value_pair_tIiNS_12KeyLayoutMap3KeyEEEE15do_move_forwardEPvPKvj
_ZNK7android12SortedVectorINS_16key_value_pair_tIiNS_12KeyLayoutMap3KeyEEEE16do_move_backwardEPvPKvj
_ZNK7android12SortedVectorINS_16key_value_pair_tIiNS_12KeyLayoutMap3KeyEEEE7do_copyEPvPKvj
_ZNK7android12SortedVectorINS_16key_value_pair_tIiNS_12KeyLayoutMap3KeyEEEE8do_splatEPvPKvj
_ZNK7android12SortedVectorINS_16key_value_pair_tIiNS_15InputDeviceInfo11MotionRangeEEEE10do_compareEPKvS7_
_ZNK7android12SortedVectorINS_16key_value_pair_tIiNS_15InputDeviceInfo11MotionRangeEEEE10do_destroyEPvj
_ZNK7android12SortedVectorINS_16key_value_pair_tIiNS_15InputDeviceInfo11MotionRangeEEEE12do_constructEPvj
_ZNK7android12SortedVectorINS_16key_value_pair_tIiNS_15InputDeviceInfo11MotionRangeEEEE15do_move_forwardEPvPKvj
_ZNK7android12SortedVectorINS_16key_value_pair_tIiNS_15InputDeviceInfo11MotionRangeEEEE16do_move_backwardEPvPKvj
_ZNK7android12SortedVectorINS_16key_value_pair_tIiNS_15InputDeviceInfo11MotionRangeEEEE7do_copyEPvPKvj
_ZNK7android12SortedVectorINS_16key_value_pair_tIiNS_15InputDeviceInfo11MotionRangeEEEE8do_splatEPvPKvj
_ZNK7android12SortedVectorINS_16key_value_pair_tIiNS_2spINS_15InputDispatcher10ConnectionEEEEEE10do_compareEPKvS9_
_ZNK7android12SortedVectorINS_16key_value_pair_tIiNS_2spINS_15InputDispatcher10ConnectionEEEEEE10do_destroyEPvj
_ZNK7android12SortedVectorINS_16key_value_pair_tIiNS_2spINS_15InputDispatcher10ConnectionEEEEEE12do_constructEPvj
_ZNK7android12SortedVectorINS_16key_value_pair_tIiNS_2spINS_15InputDispatcher10ConnectionEEEEEE15do_move_forwardEPvPKvj
_ZNK7android12SortedVectorINS_16key_value_pair_tIiNS_2spINS_15InputDispatcher10ConnectionEEEEEE16do_move_backwardEPvPKvj
_ZNK7android12SortedVectorINS_16key_value_pair_tIiNS_2spINS_15InputDispatcher10ConnectionEEEEEE7do_copyEPvPKvj
_ZNK7android12SortedVectorINS_16key_value_pair_tIiNS_2spINS_15InputDispatcher10ConnectionEEEEEE8do_splatEPvPKvj
_ZNK7android12SortedVectorINS_16key_value_pair_tIiPNS_11InputDeviceEEEE10do_compareEPKvS7_
_ZNK7android12SortedVectorINS_16key_value_pair_tIiPNS_11InputDeviceEEEE10do_destroyEPvj
_ZNK7android12SortedVectorINS_16key_value_pair_tIiPNS_11InputDeviceEEEE12do_constructEPvj
_ZNK7android12SortedVectorINS_16key_value_pair_tIiPNS_11InputDeviceEEEE15do_move_forwardEPvPKvj
_ZNK7android12SortedVectorINS_16key_value_pair_tIiPNS_11InputDeviceEEEE16do_move_backwardEPvPKvj
_ZNK7android12SortedVectorINS_16key_value_pair_tIiPNS_11InputDeviceEEEE7do_copyEPvPKvj
_ZNK7android12SortedVectorINS_16key_value_pair_tIiPNS_11InputDeviceEEEE8do_splatEPvPKvj
_ZNK7android13GraphicBuffer10getFdCountEv
_ZNK7android13GraphicBuffer15getNativeBufferEv
_ZNK7android13GraphicBuffer16getFlattenedSizeEv
_ZNK7android13GraphicBuffer7flattenEPvjPij
_ZNK7android13GraphicBuffer8getIndexEv
_ZNK7android13GraphicBuffer9initCheckEv
_ZNK7android13InputConsumer16populateKeyEventEPNS_8KeyEventE
_ZNK7android13InputConsumer19populateMotionEventEPNS_11MotionEventE
_ZNK7android15InputDeviceInfo14getMotionRangeEi
_ZNK7android15InputDispatcher10Connection14getStatusLabelEv
_ZNK7android15InputDispatcher10Connection31findQueuedDispatchEntryForEventEPKNS0_10EventEntryE
_ZNK7android15InputDispatcher10InputState9isNeutralEv
_ZNK7android15InputDispatcher11MotionEntry12countSamplesEv
_ZNK7android15InputDispatcher29isWindowObscuredAtPointLockedEPKNS_11InputWindowEii
_ZNK7android15PixelFormatInfo15getScanlineSizeEj
_ZNK7android16SortedVectorImpl7indexOfEPKv
_ZNK7android22GraphicBufferAllocator4dumpERNS_7String8E
_ZNK7android22InputDeviceCalibration14tryGetPropertyERKNS_7String8ERS1_
_ZNK7android22InputDeviceCalibration14tryGetPropertyERKNS_7String8ERf
_ZNK7android22InputDeviceCalibration14tryGetPropertyERKNS_7String8ERi
_ZNK7android23FramebufferNativeWindow21getCurrentBufferIndexEv
_ZNK7android4Rect9intersectERKS0_PS0_
_ZNK7android4RectltERKS0_
_ZNK7android4RectmiERKNS_5PointE
_ZNK7android4RectplERKNS_5PointE
_ZNK7android6Parcel14checkInterfaceEPNS_7IBinderE
_ZNK7android6Parcel16readNativeHandleEv
_ZNK7android6Parcel16readStrongBinderEv
_ZNK7android6Parcel9readInt32Ev
_ZNK7android6Region3endEv
_ZNK7android6Region4dumpEPKcj
_ZNK7android6Region4dumpERNS_7String8EPKcj
_ZNK7android6Region5beginEv
_ZNK7android6Region5mergeERKNS_4RectE
_ZNK7android6Region5mergeERKS0_
_ZNK7android6Region5mergeERKS0_ii
_ZNK7android6Region5writeEPvj
_ZNK7android6Region8getArrayEPj
_ZNK7android6Region8getRectsERNS_6VectorINS_4RectEEE
_ZNK7android6Region8subtractERKNS_4RectE
_ZNK7android6Region8subtractERKS0_
_ZNK7android6Region8subtractERKS0_ii
_ZNK7android6Region9intersectERKNS_4RectE
_ZNK7android6Region9intersectERKS0_
_ZNK7android6Region9intersectERKS0_ii
_ZNK7android6Region9operationERKNS_4RectEi
_ZNK7android6Region9operationERKS0_i
_ZNK7android6Region9operationERKS0_iii
_ZNK7android6Region9translateEii
_ZNK7android6VectorINS_11InputTargetEE10do_destroyEPvj
_ZNK7android6VectorINS_11InputTargetEE12do_constructEPvj
_ZNK7android6VectorINS_11InputTargetEE15do_move_forwardEPvPKvj
_ZNK7android6VectorINS_11InputTargetEE16do_move_backwardEPvPKvj
_ZNK7android6VectorINS_11InputTargetEE7do_copyEPvPKvj
_ZNK7android6VectorINS_11InputTargetEE8do_splatEPvPKvj
_ZNK7android6VectorINS_11InputWindowEE10do_destroyEPvj
_ZNK7android6VectorINS_11InputWindowEE12do_constructEPvj
_ZNK7android6VectorINS_11InputWindowEE15do_move_forwardEPvPKvj
_ZNK7android6VectorINS_11InputWindowEE16do_move_backwardEPvPKvj
_ZNK7android6VectorINS_11InputWindowEE7do_copyEPvPKvj
_ZNK7android6VectorINS_11InputWindowEE8do_splatEPvPKvj
_ZNK7android6VectorINS_15InputDispatcher10InputState10KeyMementoEE10do_destroyEPvj
_ZNK7android6VectorINS_15InputDispatcher10InputState10KeyMementoEE12do_constructEPvj
_ZNK7android6VectorINS_15InputDispatcher10InputState10KeyMementoEE15do_move_forwardEPvPKvj
_ZNK7android6VectorINS_15InputDispatcher10InputState10KeyMementoEE16do_move_backwardEPvPKvj
_ZNK7android6VectorINS_15InputDispatcher10InputState10KeyMementoEE7do_copyEPvPKvj
_ZNK7android6VectorINS_15InputDispatcher10InputState10KeyMementoEE8do_splatEPvPKvj
_ZNK7android6VectorINS_15InputDispatcher10InputState13MotionMementoEE10do_destroyEPvj
_ZNK7android6VectorINS_15InputDispatcher10InputState13MotionMementoEE12do_constructEPvj
_ZNK7android6VectorINS_15InputDispatcher10InputState13MotionMementoEE15do_move_forwardEPvPKvj
_ZNK7android6VectorINS_15InputDispatcher10InputState13MotionMementoEE16do_move_backwardEPvPKvj
_ZNK7android6VectorINS_15InputDispatcher10InputState13MotionMementoEE7do_copyEPvPKvj
_ZNK7android6VectorINS_15InputDispatcher10InputState13MotionMementoEE8do_splatEPvPKvj
_ZNK7android6VectorINS_15InputDispatcher13TouchedWindowEE10do_destroyEPvj
_ZNK7android6VectorINS_15InputDispatcher13TouchedWindowEE12do_constructEPvj
_ZNK7android6VectorINS_15InputDispatcher13TouchedWindowEE15do_move_forwardEPvPKvj
_ZNK7android6VectorINS_15InputDispatcher13TouchedWindowEE16do_move_backwardEPvPKvj
_ZNK7android6VectorINS_15InputDispatcher13TouchedWindowEE7do_copyEPvPKvj
_ZNK7android6VectorINS_15InputDispatcher13TouchedWindowEE8do_splatEPvPKvj
_ZNK7android6VectorINS_16TouchInputMapper10VirtualKeyEE10do_destroyEPvj
_ZNK7android6VectorINS_16TouchInputMapper10VirtualKeyEE12do_constructEPvj
_ZNK7android6VectorINS_16TouchInputMapper10VirtualKeyEE15do_move_forwardEPvPKvj
_ZNK7android6VectorINS_16TouchInputMapper10VirtualKeyEE16do_move_backwardEPvPKvj
_ZNK7android6VectorINS_16TouchInputMapper10VirtualKeyEE7do_copyEPvPKvj
_ZNK7android6VectorINS_16TouchInputMapper10VirtualKeyEE8do_splatEPvPKvj
_ZNK7android6VectorINS_19KeyboardInputMapper7KeyDownEE10do_destroyEPvj
_ZNK7android6VectorINS_19KeyboardInputMapper7KeyDownEE12do_constructEPvj
_ZNK7android6VectorINS_19KeyboardInputMapper7KeyDownEE15do_move_forwardEPvPKvj
_ZNK7android6VectorINS_19KeyboardInputMapper7KeyDownEE16do_move_backwardEPvPKvj
_ZNK7android6VectorINS_19KeyboardInputMapper7KeyDownEE7do_copyEPvPKvj
_ZNK7android6VectorINS_19KeyboardInputMapper7KeyDownEE8do_splatEPvPKvj
_ZNK7android6VectorINS_20VirtualKeyDefinitionEE10do_destroyEPvj
_ZNK7android6VectorINS_20VirtualKeyDefinitionEE12do_constructEPvj
_ZNK7android6VectorINS_20VirtualKeyDefinitionEE15do_move_forwardEPvPKvj
_ZNK7android6VectorINS_20VirtualKeyDefinitionEE16do_move_backwardEPvPKvj
_ZNK7android6VectorINS_20VirtualKeyDefinitionEE7do_copyEPvPKvj
_ZNK7android6VectorINS_20VirtualKeyDefinitionEE8do_splatEPvPKvj
_ZNK7android6VectorINS_2spINS_12InputChannelEEEE10do_destroyEPvj
_ZNK7android6VectorINS_2spINS_12InputChannelEEEE12do_constructEPvj
_ZNK7android6VectorINS_2spINS_12InputChannelEEEE15do_move_forwardEPvPKvj
_ZNK7android6VectorINS_2spINS_12InputChannelEEEE16do_move_backwardEPvPKvj
_ZNK7android6VectorINS_2spINS_12InputChannelEEEE7do_copyEPvPKvj
_ZNK7android6VectorINS_2spINS_12InputChannelEEEE8do_splatEPvPKvj
_ZNK7android6VectorINS_4RectEE10do_destroyEPvj
_ZNK7android6VectorINS_4RectEE12do_constructEPvj
_ZNK7android6VectorINS_4RectEE15do_move_forwardEPvPKvj
_ZNK7android6VectorINS_4RectEE16do_move_backwardEPvPKvj
_ZNK7android6VectorINS_4RectEE7do_copyEPvPKvj
_ZNK7android6VectorINS_4RectEE8do_splatEPvPKvj
_ZNK7android6VectorINS_7String8EE10do_destroyEPvj
_ZNK7android6VectorINS_7String8EE12do_constructEPvj
_ZNK7android6VectorINS_7String8EE15do_move_forwardEPvPKvj
_ZNK7android6VectorINS_7String8EE16do_move_backwardEPvPKvj
_ZNK7android6VectorINS_7String8EE7do_copyEPvPKvj
_ZNK7android6VectorINS_7String8EE8do_splatEPvPKvj
_ZNK7android6VectorIPNS_11InputMapperEE10do_destroyEPvj
_ZNK7android6VectorIPNS_11InputMapperEE12do_constructEPvj
_ZNK7android6VectorIPNS_11InputMapperEE15do_move_forwardEPvPKvj
_ZNK7android6VectorIPNS_11InputMapperEE16do_move_backwardEPvPKvj
_ZNK7android6VectorIPNS_11InputMapperEE7do_copyEPvPKvj
_ZNK7android6VectorIPNS_11InputMapperEE8do_splatEPvPKvj
_ZNK7android6VectorIPNS_15InputDispatcher10ConnectionEE10do_destroyEPvj
_ZNK7android6VectorIPNS_15InputDispatcher10ConnectionEE12do_constructEPvj
_ZNK7android6VectorIPNS_15InputDispatcher10ConnectionEE15do_move_forwardEPvPKvj
_ZNK7android6VectorIPNS_15InputDispatcher10ConnectionEE16do_move_backwardEPvPKvj
_ZNK7android6VectorIPNS_15InputDispatcher10ConnectionEE7do_copyEPvPKvj
_ZNK7android6VectorIPNS_15InputDispatcher10ConnectionEE8do_splatEPvPKvj
_ZNK7android6VectorIPNS_15InputDispatcher10EventEntryEE10do_destroyEPvj
_ZNK7android6VectorIPNS_15InputDispatcher10EventEntryEE12do_constructEPvj
_ZNK7android6VectorIPNS_15InputDispatcher10EventEntryEE15do_move_forwardEPvPKvj
_ZNK7android6VectorIPNS_15InputDispatcher10EventEntryEE16do_move_backwardEPvPKvj
_ZNK7android6VectorIPNS_15InputDispatcher10EventEntryEE7do_copyEPvPKvj
_ZNK7android6VectorIPNS_15InputDispatcher10EventEntryEE8do_splatEPvPKvj
_ZNK7android6VectorIiE10do_destroyEPvj
_ZNK7android6VectorIiE12do_constructEPvj
_ZNK7android6VectorIiE15do_move_forwardEPvPKvj
_ZNK7android6VectorIiE16do_move_backwardEPvPKvj
_ZNK7android6VectorIiE7do_copyEPvPKvj
_ZNK7android6VectorIiE8do_splatEPvPKvj
_ZNK7android7BBinder10findObjectEPKv
_ZNK7android7BBinder13isBinderAliveEv
_ZNK7android7BBinder22getInterfaceDescriptorEv
_ZNK7android7IBinder13checkSubclassEPKv
_ZNK7android7Overlay12getHandleRefEv
_ZNK7android7Overlay14getBufferCountEv
_ZNK7android7Overlay14getWidthStrideEv
_ZNK7android7Overlay15getHeightStrideEv
_ZNK7android7Overlay8getWidthEv
_ZNK7android7Overlay9getFormatEv
_ZNK7android7Overlay9getHeightEv
_ZNK7android7Overlay9getStatusEv
_ZNK7android7RefBase9decStrongEPKv
_ZNK7android7RefBase9incStrongEPKv
_ZNK7android8EventHub10errorCheckEv
_ZNK7android8EventHub13getDeviceNameEi
_ZNK7android8EventHub14getSwitchStateEii
_ZNK7android8EventHub15getDeviceLockedEi
_ZNK7android8EventHub15getKeyCodeStateEii
_ZNK7android8EventHub16getDeviceClassesEi
_ZNK7android8EventHub16getScanCodeStateEii
_ZNK7android8EventHub16hasKeycodeLockedEPNS0_8device_tEi
_ZNK7android8EventHub17scancodeToKeycodeEiiPiPj
_ZNK7android8EventHub19getAbsoluteAxisInfoEiiPNS_19RawAbsoluteAxisInfoE
_ZNK7android8EventHub20getSwitchStateLockedEPNS0_8device_tEi
_ZNK7android8EventHub21getKeyCodeStateLockedEPNS0_8device_tEi
_ZNK7android8EventHub21markSupportedKeyCodesEijPKiPh
_ZNK7android8EventHub22getScanCodeStateLockedEPNS0_8device_tEi
_ZNK7android8EventHub27markSupportedKeyCodesLockedEPNS0_8device_tEjPKiPh
_ZNK7android8IOverlay22getInterfaceDescriptorEv
_ZNK7android8KeyEvent11isSystemKeyEv
_ZNK7android8KeyEvent16hasDefaultActionEv
_ZTCN7android11BnInterfaceINS_8IOverlayEEE0_NS_10IInterfaceE
_ZTCN7android11BnInterfaceINS_8IOverlayEEE0_S1_
_ZTCN7android11BnInterfaceINS_8IOverlayEEE4_NS_7BBinderE
_ZTCN7android11BnInterfaceINS_8IOverlayEEE4_NS_7IBinderE
_ZTCN7android11BpInterfaceINS_8IOverlayEEE0_NS_10IInterfaceE
_ZTCN7android11BpInterfaceINS_8IOverlayEEE0_S1_
_ZTCN7android11BpInterfaceINS_8IOverlayEEE4_NS_9BpRefBaseE
_ZTCN7android11InputReaderE0_NS_20InputReaderInterfaceE
_ZTCN7android12InputManagerE0_NS_21InputManagerInterfaceE
_ZTCN7android15InputDispatcherE0_NS_24InputDispatcherInterfaceE
_ZTCN7android17InputReaderThreadE0_NS_6ThreadE
_ZTCN7android21InputDispatcherThreadE0_NS_6ThreadE
_ZTCN7android8EventHubE0_NS_17EventHubInterfaceE
_ZTCN7android8IOverlayE0_NS_10IInterfaceE
_ZTCN7android9BnOverlayE0_NS_10IInterfaceE
_ZTCN7android9BnOverlayE0_NS_11BnInterfaceINS_8IOverlayEEE
_ZTCN7android9BnOverlayE0_NS_8IOverlayE
_ZTCN7android9BnOverlayE4_NS_7BBinderE
_ZTCN7android9BnOverlayE4_NS_7IBinderE
_ZTCN7android9BpOverlayE0_NS_10IInterfaceE
_ZTCN7android9BpOverlayE0_NS_11BpInterfaceINS_8IOverlayEEE
_ZTCN7android9BpOverlayE0_NS_8IOverlayE
_ZTCN7android9BpOverlayE4_NS_9BpRefBaseE
_ZTTN7android11BnInterfaceINS_8IOverlayEEE
_ZTTN7android11BpInterfaceINS_8IOverlayEEE
_ZTTN7android11InputReaderE
_ZTTN7android12InputManagerE
_ZTTN7android15InputDispatcherE
_ZTTN7android17EventHubInterfaceE
_ZTTN7android17InputReaderThreadE
_ZTTN7android20InputReaderInterfaceE
_ZTTN7android21InputDispatcherThreadE
_ZTTN7android21InputManagerInterfaceE
_ZTTN7android24InputDispatcherInterfaceE
_ZTTN7android7OverlayE
_ZTTN7android8EventHubE
_ZTTN7android8IOverlayE
_ZTTN7android9BnOverlayE
_ZTTN7android9BpOverlayE
_ZTV11AInputEvent
_ZTVN7android10InputEventE
_ZTVN7android10OverlayRefE
_ZTVN7android11BnInterfaceINS_8IOverlayEEE
_ZTVN7android11BpInterfaceINS_8IOverlayEEE
_ZTVN7android11FlattenableE
_ZTVN7android11InputMapperE
_ZTVN7android11InputReaderE
_ZTVN7android12InputChannelE
_ZTVN7android12InputManagerE
_ZTVN7android12SortedVectorINS_16key_value_pair_tINS_7String8ES2_EEEE
_ZTVN7android12SortedVectorINS_16key_value_pair_tIPK15native_handle_tNS_22GraphicBufferAllocator11alloc_rec_tEEEEE
_ZTVN7android12SortedVectorINS_16key_value_pair_tIiNS_12KeyLayoutMap3KeyEEEEE
_ZTVN7android12SortedVectorINS_16key_value_pair_tIiNS_15InputDeviceInfo11MotionRangeEEEEE
_ZTVN7android12SortedVectorINS_16key_value_pair_tIiNS_2spINS_15InputDispatcher10ConnectionEEEEEEE
_ZTVN7android12SortedVectorINS_16key_value_pair_tIiPNS_11InputDeviceEEEEE
_ZTVN7android13GraphicBufferE
_ZTVN7android15InputDispatcher10ConnectionE
_ZTVN7android15InputDispatcherE
_ZTVN7android15region_operatorINS_4RectEE17region_rasterizerE
_ZTVN7android16TouchInputMapperE
_ZTVN7android17EventHubInterfaceE
_ZTVN7android17InputReaderThreadE
_ZTVN7android17SwitchInputMapperE
_ZTVN7android18InputReaderContextE
_ZTVN7android19KeyboardInputMapperE
_ZTVN7android20InputReaderInterfaceE
_ZTVN7android20TrackballInputMapperE
_ZTVN7android21InputDispatcherThreadE
_ZTVN7android21InputManagerInterfaceE
_ZTVN7android21MultiTouchInputMapperE
_ZTVN7android22SingleTouchInputMapperE
_ZTVN7android24InputDispatcherInterfaceE
_ZTVN7android4ListINS_7String8EEE
_ZTVN7android6Region10rasterizerE
_ZTVN7android6VectorINS_11InputTargetEEE
_ZTVN7android6VectorINS_11InputWindowEEE
_ZTVN7android6VectorINS_15InputDispatcher10InputState10KeyMementoEEE
_ZTVN7android6VectorINS_15InputDispatcher10InputState13MotionMementoEEE
_ZTVN7android6VectorINS_15InputDispatcher13TouchedWindowEEE
_ZTVN7android6VectorINS_16TouchInputMapper10VirtualKeyEEE
_ZTVN7android6VectorINS_19KeyboardInputMapper7KeyDownEEE
_ZTVN7android6VectorINS_20VirtualKeyDefinitionEEE
_ZTVN7android6VectorINS_2spINS_12InputChannelEEEEE
_ZTVN7android6VectorINS_4RectEEE
_ZTVN7android6VectorINS_7String8EEE
_ZTVN7android6VectorIPNS_11InputMapperEEE
_ZTVN7android6VectorIPNS_15InputDispatcher10ConnectionEEE
_ZTVN7android6VectorIPNS_15InputDispatcher10EventEntryEEE
_ZTVN7android6VectorIiEE
_ZTVN7android7OverlayE
_ZTVN7android8EventHubE
_ZTVN7android8IOverlayE
_ZTVN7android8KeyEventE
_ZTVN7android9BnOverlayE
_ZTVN7android9BpOverlayE
_ZThn4_N7android11InputReader18getGlobalMetaStateEv
_ZThn4_N7android11InputReader20shouldDropVirtualKeyExPNS_11InputDeviceEii
_ZThn4_N7android11InputReader21updateGlobalMetaStateEv
_ZThn4_N7android11InputReader23disableVirtualKeysUntilEx
_ZThn4_N7android11InputReaderD0Ev
_ZThn4_N7android11InputReaderD1Ev
_ZThn4_N7android9BnOverlay10onTransactEjRKNS_6ParcelEPS1_j
_ZTv0_n12_N7android10IInterfaceD0Ev
_ZTv0_n12_N7android10IInterfaceD1Ev
_ZTv0_n12_N7android11BnInterfaceINS_8IOverlayEED0Ev
_ZTv0_n12_N7android11BnInterfaceINS_8IOverlayEED1Ev
_ZTv0_n12_N7android11BpInterfaceINS_8IOverlayEED0Ev
_ZTv0_n12_N7android11BpInterfaceINS_8IOverlayEED1Ev
_ZTv0_n12_N7android11InputReaderD0Ev
_ZTv0_n12_N7android11InputReaderD1Ev
_ZTv0_n12_N7android12InputManagerD0Ev
_ZTv0_n12_N7android12InputManagerD1Ev
_ZTv0_n12_N7android15InputDispatcherD0Ev
_ZTv0_n12_N7android15InputDispatcherD1Ev
_ZTv0_n12_N7android17EventHubInterfaceD0Ev
_ZTv0_n12_N7android17EventHubInterfaceD1Ev
_ZTv0_n12_N7android17InputReaderThreadD0Ev
_ZTv0_n12_N7android17InputReaderThreadD1Ev
_ZTv0_n12_N7android20InputReaderInterfaceD0Ev
_ZTv0_n12_N7android20InputReaderInterfaceD1Ev
_ZTv0_n12_N7android21InputDispatcherThreadD0Ev
_ZTv0_n12_N7android21InputDispatcherThreadD1Ev
_ZTv0_n12_N7android21InputManagerInterfaceD0Ev
_ZTv0_n12_N7android21InputManagerInterfaceD1Ev
_ZTv0_n12_N7android24InputDispatcherInterfaceD0Ev
_ZTv0_n12_N7android24InputDispatcherInterfaceD1Ev
_ZTv0_n12_N7android6ThreadD0Ev
_ZTv0_n12_N7android6ThreadD1Ev
_ZTv0_n12_N7android7BBinderD0Ev
_ZTv0_n12_N7android7BBinderD1Ev
_ZTv0_n12_N7android7IBinderD0Ev
_ZTv0_n12_N7android7IBinderD1Ev
_ZTv0_n12_N7android7OverlayD0Ev
_ZTv0_n12_N7android7OverlayD1Ev
_ZTv0_n12_N7android8EventHubD0Ev
_ZTv0_n12_N7android8EventHubD1Ev
_ZTv0_n12_N7android8IOverlayD0Ev
_ZTv0_n12_N7android8IOverlayD1Ev
_ZTv0_n12_N7android9BnOverlayD0Ev
_ZTv0_n12_N7android9BnOverlayD1Ev
_ZTv0_n12_N7android9BpOverlayD0Ev
_ZTv0_n12_N7android9BpOverlayD1Ev
_ZTv0_n12_N7android9BpRefBaseD0Ev
_ZTv0_n12_N7android9BpRefBaseD1Ev
_ZTv0_n16_N7android9BpRefBase10onFirstRefEv
_ZTv0_n20_N7android9BpRefBase15onLastStrongRefEPKv
_ZTv0_n24_N7android9BpRefBase20onIncStrongAttemptedEjPKv
